###############################################################################
#                                                                             #
# IAR ELF Linker V6.30.1.53127/W32 for ARM              17/Jun/2021  16:00:19 #
# Copyright 2007-2011 IAR Systems AB.                                         #
#                                                                             #
#    Output file  =  F:\ÐìÏþ½¡\EGS502T2-ZL(AP-UDS)\iar\DEBUG\Exe\Project.out  #
#    Map file     =  F:\ÐìÏþ½¡\EGS502T2-ZL(AP-UDS)\iar\DEBUG\List\Project.map #
#    Command line =  "F:\ÐìÏþ½¡\EGS502T2-ZL(AP-UDS)\iar\Debug\Obj\AdapterPara #
#                    meter.o" "F:\ÐìÏþ½¡\EGS502T2-ZL(AP-UDS)\iar\Debug\Obj\Ad #
#                    apterSms.o" "F:\ÐìÏþ½¡\EGS502T2-ZL(AP-UDS)\iar\Debug\Obj #
#                    \DriveAdc.o" "F:\ÐìÏþ½¡\EGS502T2-ZL(AP-UDS)\iar\Debug\Ob #
#                    j\DriveCan2.o" "F:\ÐìÏþ½¡\EGS502T2-ZL(AP-UDS)\iar\Debug\ #
#                    Obj\DriveCrc.o" "F:\ÐìÏþ½¡\EGS502T2-ZL(AP-UDS)\iar\Debug #
#                    \Obj\DriveSysTick.o" "F:\ÐìÏþ½¡\EGS502T2-ZL(AP-UDS)\iar\ #
#                    Debug\Obj\DriveUsart1.o" "F:\ÐìÏþ½¡\EGS502T2-ZL(AP-UDS)\ #
#                    iar\Debug\Obj\DriveUsart2.o"                             #
#                    "F:\ÐìÏþ½¡\EGS502T2-ZL(AP-UDS)\iar\Debug\Obj\DriveUsart6 #
#                    .o" "F:\ÐìÏþ½¡\EGS502T2-ZL(AP-UDS)\iar\Debug\Obj\DriverL #
#                    is2dh.o" "F:\ÐìÏþ½¡\EGS502T2-ZL(AP-UDS)\iar\Debug\Obj\Ee #
#                    yeLib.o" "F:\ÐìÏþ½¡\EGS502T2-ZL(AP-UDS)\iar\Debug\Obj\Fu #
#                    nctionIo.o" "F:\ÐìÏþ½¡\EGS502T2-ZL(AP-UDS)\iar\Debug\Obj #
#                    \GprsNetwork.o" "F:\ÐìÏþ½¡\EGS502T2-ZL(AP-UDS)\iar\Debug #
#                    \Obj\InterfaceIap.o" "F:\ÐìÏþ½¡\EGS502T2-ZL(AP-UDS)\iar\ #
#                    Debug\Obj\InterfaceInCom.o"                              #
#                    "F:\ÐìÏþ½¡\EGS502T2-ZL(AP-UDS)\iar\Debug\Obj\InterfaceSy #
#                    stem.o" "F:\ÐìÏþ½¡\EGS502T2-ZL(AP-UDS)\iar\Debug\Obj\MD5 #
#                    _NEW.o" "F:\ÐìÏþ½¡\EGS502T2-ZL(AP-UDS)\iar\Debug\Obj\Man #
#                    ageAlarm.o" "F:\ÐìÏþ½¡\EGS502T2-ZL(AP-UDS)\iar\Debug\Obj #
#                    \ManageBlindArea.o" "F:\ÐìÏþ½¡\EGS502T2-ZL(AP-UDS)\iar\D #
#                    ebug\Obj\ManageBusPulse.o" "F:\ÐìÏþ½¡\EGS502T2-ZL(AP-UDS #
#                    )\iar\Debug\Obj\ManageCanBus.o"                          #
#                    "F:\ÐìÏþ½¡\EGS502T2-ZL(AP-UDS)\iar\Debug\Obj\ManageDs18b #
#                    20.o" "F:\ÐìÏþ½¡\EGS502T2-ZL(AP-UDS)\iar\Debug\Obj\Manag #
#                    eExDev.o" "F:\ÐìÏþ½¡\EGS502T2-ZL(AP-UDS)\iar\Debug\Obj\M #
#                    anageFlashProgram.o" "F:\ÐìÏþ½¡\EGS502T2-ZL(AP-UDS)\iar\ #
#                    Debug\Obj\ManageKeyUnlock.o"                             #
#                    "F:\ÐìÏþ½¡\EGS502T2-ZL(AP-UDS)\iar\Debug\Obj\ManageLockC #
#                    ar.o" "F:\ÐìÏþ½¡\EGS502T2-ZL(AP-UDS)\iar\Debug\Obj\Manag #
#                    ePacketUpdate.o" "F:\ÐìÏþ½¡\EGS502T2-ZL(AP-UDS)\iar\Debu #
#                    g\Obj\ManagePortControl.o" "F:\ÐìÏþ½¡\EGS502T2-ZL(AP-UDS #
#                    )\iar\Debug\Obj\ManagePosTrack.o"                        #
#                    "F:\ÐìÏþ½¡\EGS502T2-ZL(AP-UDS)\iar\Debug\Obj\ManageProto #
#                    col.o" "F:\ÐìÏþ½¡\EGS502T2-ZL(AP-UDS)\iar\Debug\Obj\Mana #
#                    geRemoteUpdate.o" "F:\ÐìÏþ½¡\EGS502T2-ZL(AP-UDS)\iar\Deb #
#                    ug\Obj\ManageTime.o" "F:\ÐìÏþ½¡\EGS502T2-ZL(AP-UDS)\iar\ #
#                    Debug\Obj\ManageVoltSample.o"                            #
#                    "F:\ÐìÏþ½¡\EGS502T2-ZL(AP-UDS)\iar\Debug\Obj\ManageWatch #
#                    dog.o" "F:\ÐìÏþ½¡\EGS502T2-ZL(AP-UDS)\iar\Debug\Obj\Mana #
#                    geWorkStat.o" "F:\ÐìÏþ½¡\EGS502T2-ZL(AP-UDS)\iar\Debug\O #
#                    bj\MileMeter.o" "F:\ÐìÏþ½¡\EGS502T2-ZL(AP-UDS)\iar\Debug #
#                    \Obj\ModuleGps.o" "F:\ÐìÏþ½¡\EGS502T2-ZL(AP-UDS)\iar\Deb #
#                    ug\Obj\NewBusOut.o" "F:\ÐìÏþ½¡\EGS502T2-ZL(AP-UDS)\iar\D #
#                    ebug\Obj\OS_EVENT.o" "F:\ÐìÏþ½¡\EGS502T2-ZL(AP-UDS)\iar\ #
#                    Debug\Obj\OS_TASK.o" "F:\ÐìÏþ½¡\EGS502T2-ZL(AP-UDS)\iar\ #
#                    Debug\Obj\SpiFlash.o" "F:\ÐìÏþ½¡\EGS502T2-ZL(AP-UDS)\iar #
#                    \Debug\Obj\e2prom_93C86.o" "F:\ÐìÏþ½¡\EGS502T2-ZL(AP-UDS #
#                    )\iar\Debug\Obj\hmacsha1.o"                              #
#                    "F:\ÐìÏþ½¡\EGS502T2-ZL(AP-UDS)\iar\Debug\Obj\main.o"     #
#                    "F:\ÐìÏþ½¡\EGS502T2-ZL(AP-UDS)\iar\Debug\Obj\misc.o"     #
#                    "F:\ÐìÏþ½¡\EGS502T2-ZL(AP-UDS)\iar\Debug\Obj\myPrintf.o" #
#                     "F:\ÐìÏþ½¡\EGS502T2-ZL(AP-UDS)\iar\Debug\Obj\rtc.o"     #
#                    "F:\ÐìÏþ½¡\EGS502T2-ZL(AP-UDS)\iar\Debug\Obj\startup_stm #
#                    32f2xx.o" "F:\ÐìÏþ½¡\EGS502T2-ZL(AP-UDS)\iar\Debug\Obj\s #
#                    tm32f2xx_adc.o" "F:\ÐìÏþ½¡\EGS502T2-ZL(AP-UDS)\iar\Debug #
#                    \Obj\stm32f2xx_can.o" "F:\ÐìÏþ½¡\EGS502T2-ZL(AP-UDS)\iar #
#                    \Debug\Obj\stm32f2xx_crc.o"                              #
#                    "F:\ÐìÏþ½¡\EGS502T2-ZL(AP-UDS)\iar\Debug\Obj\stm32f2xx_c #
#                    ryp.o" "F:\ÐìÏþ½¡\EGS502T2-ZL(AP-UDS)\iar\Debug\Obj\stm3 #
#                    2f2xx_cryp_aes.o" "F:\ÐìÏþ½¡\EGS502T2-ZL(AP-UDS)\iar\Deb #
#                    ug\Obj\stm32f2xx_cryp_des.o"                             #
#                    "F:\ÐìÏþ½¡\EGS502T2-ZL(AP-UDS)\iar\Debug\Obj\stm32f2xx_c #
#                    ryp_tdes.o" "F:\ÐìÏþ½¡\EGS502T2-ZL(AP-UDS)\iar\Debug\Obj #
#                    \stm32f2xx_dac.o" "F:\ÐìÏþ½¡\EGS502T2-ZL(AP-UDS)\iar\Deb #
#                    ug\Obj\stm32f2xx_dbgmcu.o" "F:\ÐìÏþ½¡\EGS502T2-ZL(AP-UDS #
#                    )\iar\Debug\Obj\stm32f2xx_dcmi.o"                        #
#                    "F:\ÐìÏþ½¡\EGS502T2-ZL(AP-UDS)\iar\Debug\Obj\stm32f2xx_d #
#                    ma.o" "F:\ÐìÏþ½¡\EGS502T2-ZL(AP-UDS)\iar\Debug\Obj\stm32 #
#                    f2xx_exti.o" "F:\ÐìÏþ½¡\EGS502T2-ZL(AP-UDS)\iar\Debug\Ob #
#                    j\stm32f2xx_flash.o" "F:\ÐìÏþ½¡\EGS502T2-ZL(AP-UDS)\iar\ #
#                    Debug\Obj\stm32f2xx_fsmc.o"                              #
#                    "F:\ÐìÏþ½¡\EGS502T2-ZL(AP-UDS)\iar\Debug\Obj\stm32f2xx_g #
#                    pio.o" "F:\ÐìÏþ½¡\EGS502T2-ZL(AP-UDS)\iar\Debug\Obj\stm3 #
#                    2f2xx_hash.o" "F:\ÐìÏþ½¡\EGS502T2-ZL(AP-UDS)\iar\Debug\O #
#                    bj\stm32f2xx_hash_md5.o" "F:\ÐìÏþ½¡\EGS502T2-ZL(AP-UDS)\ #
#                    iar\Debug\Obj\stm32f2xx_hash_sha1.o"                     #
#                    "F:\ÐìÏþ½¡\EGS502T2-ZL(AP-UDS)\iar\Debug\Obj\stm32f2xx_i #
#                    2c.o" "F:\ÐìÏþ½¡\EGS502T2-ZL(AP-UDS)\iar\Debug\Obj\stm32 #
#                    f2xx_it.o" "F:\ÐìÏþ½¡\EGS502T2-ZL(AP-UDS)\iar\Debug\Obj\ #
#                    stm32f2xx_iwdg.o" "F:\ÐìÏþ½¡\EGS502T2-ZL(AP-UDS)\iar\Deb #
#                    ug\Obj\stm32f2xx_pwr.o" "F:\ÐìÏþ½¡\EGS502T2-ZL(AP-UDS)\i #
#                    ar\Debug\Obj\stm32f2xx_rcc.o"                            #
#                    "F:\ÐìÏþ½¡\EGS502T2-ZL(AP-UDS)\iar\Debug\Obj\stm32f2xx_r #
#                    ng.o" "F:\ÐìÏþ½¡\EGS502T2-ZL(AP-UDS)\iar\Debug\Obj\stm32 #
#                    f2xx_rtc.o" "F:\ÐìÏþ½¡\EGS502T2-ZL(AP-UDS)\iar\Debug\Obj #
#                    \stm32f2xx_sdio.o" "F:\ÐìÏþ½¡\EGS502T2-ZL(AP-UDS)\iar\De #
#                    bug\Obj\stm32f2xx_spi.o" "F:\ÐìÏþ½¡\EGS502T2-ZL(AP-UDS)\ #
#                    iar\Debug\Obj\stm32f2xx_syscfg.o"                        #
#                    "F:\ÐìÏþ½¡\EGS502T2-ZL(AP-UDS)\iar\Debug\Obj\stm32f2xx_s #
#                    ystick.o" "F:\ÐìÏþ½¡\EGS502T2-ZL(AP-UDS)\iar\Debug\Obj\s #
#                    tm32f2xx_tim.o" "F:\ÐìÏþ½¡\EGS502T2-ZL(AP-UDS)\iar\Debug #
#                    \Obj\stm32f2xx_usart.o" "F:\ÐìÏþ½¡\EGS502T2-ZL(AP-UDS)\i #
#                    ar\Debug\Obj\stm32f2xx_wwdg.o"                           #
#                    "F:\ÐìÏþ½¡\EGS502T2-ZL(AP-UDS)\iar\Debug\Obj\system_stm3 #
#                    2f2xx.o" "F:\ÐìÏþ½¡\EGS502T2-ZL(AP-UDS)\sorce\extern\enc #
#                    ryption.a" --redirect _Printf=_PrintfSmall --redirect    #
#                    _Scanf=_ScanfSmall -o "F:\ÐìÏþ½¡\EGS502T2-ZL(AP-UDS)\iar #
#                    \DEBUG\Exe\Project.out" --map                            #
#                    "F:\ÐìÏþ½¡\EGS502T2-ZL(AP-UDS)\iar\DEBUG\List\Project.ma #
#                    p" --config "F:\ÐìÏþ½¡\EGS502T2-ZL(AP-UDS)\iar\stm32f2xx #
#                    _flash.icf" --semihosting --entry __iar_program_start    #
#                    --vfe                                                    #
#                                                                             #
#                                                                             #
###############################################################################

*******************************************************************************
*** RUNTIME MODEL ATTRIBUTES
***

CppFlavor                     = *
__Heap_Handler                = Basic
__SystemLibrary               = DLib
__dlib_dynamic_initialization = normal


*******************************************************************************
*** PLACEMENT SUMMARY
***

"A1":  place at 0x08004000 { ro section .intvec };
"P1":  place in [from 0x08004000 to 0x080fffff] { ro };
"P2":  place in [from 0x20000000 to 0x20020000] { rw, block CSTACK, block HEAP };

  Section            Kind        Address     Size  Object
  -------            ----        -------     ----  ------
"A1":                                       0x184
  .intvec            ro code  0x08004000    0x184  startup_stm32f2xx.o [1]
                            - 0x08004184    0x184

"P1":                                     0x1e834
  .text              ro code  0x08004184   0x556c  GprsNetwork.o [1]
  .text              ro code  0x080096f0   0x103c  InterfaceSystem.o [1]
  .text              ro code  0x0800a72c    0x1b8  ManageTime.o [1]
  .text              ro code  0x0800a8e4    0x3d4  AdapterParameter.o [1]
  .text              ro code  0x0800acb8    0x188  FunctionIo.o [1]
  .text              ro code  0x0800ae40     0x14  ManageRemoteUpdate.o [1]
  .text              ro code  0x0800ae54    0x222  OS_TASK.o [1]
  .text              ro code  0x0800b076     0x22  zero_init3.o [6]
  .text              ro code  0x0800b098    0x250  ManageAlarm.o [1]
  .text              ro code  0x0800b2e8   0x10a4  ModuleGps.o [1]
  .text              ro code  0x0800c38c    0xa08  ManagePosTrack.o [1]
  .text              ro code  0x0800cd94      0xe  ModuleGps.o [1]
  .text              ro code  0x0800cda2      0xa  xsprout.o [3]
  .text              ro code  0x0800cdac     0x24  printf.o [3]
  .text              ro code  0x0800cdd0     0xa0  OS_EVENT.o [1]
  .text              ro code  0x0800ce70    0x794  ManageLockCar.o [1]
  .text              ro code  0x0800d604   0x29e8  ManageProtocol.o [1]
  .text              ro code  0x0800ffec    0x808  ManageFlashProgram.o [1]
  .text              ro code  0x080107f4    0x5b0  ManagePacketUpdate.o [1]
  .text              ro code  0x08010da4    0x88c  ManageRemoteUpdate.o [1]
  .text              ro code  0x08011630     0x2a  strncmp.o [3]
  .text              ro code  0x0801165c    0x36e  EeyeLib.o [1]
  .text              ro code  0x080119ca      0x8  main.o [1]
  .text              ro code  0x080119d2      0x6  myPrintf.o [1]
  .text              ro code  0x080119d8    0x1da  stm32f2xx_usart.o [1]
  .text              ro code  0x08011bb4     0x34  sprintf.o [3]
  .text              ro code  0x08011be8     0x36  strlen.o [6]
  .text              ro code  0x08011c20    0x8b4  AdapterSms.o [1]
  .text              ro code  0x080124d4    0x744  ManageKeyUnlock.o [1]
  .text              ro code  0x08012c18     0x16  strchr.o [6]
  .text              ro code  0x08012c30    0x3bc  rtc.o [1]
  .text              ro code  0x08012fec      0x8  abs.o [3]
  .text              ro code  0x08012ff4      0x6  ABImemclr4.o [6]
  .text              ro code  0x08012ffc     0x62  memcmp.o [6]
  .text              ro code  0x08013060     0x8c  DriveCrc.o [1]
  .text              ro code  0x080130ec    0x2a8  stm32f2xx_dma.o [1]
  .text              ro code  0x08013394    0xbe8  ManageExDev.o [1]
  .text              ro code  0x08013f7c    0x204  DriveUsart1.o [1]
  .text              ro code  0x08014180     0xa2  ManageWatchdog.o [1]
  .text              ro code  0x08014224    0x2a4  stm32f2xx_flash.o [1]
  .text              ro code  0x080144c8    0x474  hmacsha1.o [1]
  .text              ro code  0x0801493c    0x48c  main.o [1]
  .text              ro code  0x08014dc8     0x58  ManageDs18b20.o [1]
  .text              ro code  0x08014e20    0xd54  ManagePortControl.o [1]
  .text              ro code  0x08015b74    0x568  ManageBlindArea.o [1]
  .text              ro code  0x080160dc    0x600  DriverLis2dh.o [1]
  .text              ro code  0x080166dc    0x394  stm32f2xx_rcc.o [1]
  .text              ro code  0x08016a70    0xc54  ManageVoltSample.o [1]
  .text              ro code  0x080176c4    0x578  stm32f2xx_rtc.o [1]
  .text              ro code  0x08017c3c     0x84  stm32f2xx_systick.o [1]
  .text              ro code  0x08017cc0     0x4c  stm32f2xx_pwr.o [1]
  .text              ro code  0x08017d0c     0x38  stm32f2xx_iwdg.o [1]
  .text              ro code  0x08017d44     0xc8  stm32f2xx_exti.o [1]
  .text              ro code  0x08017e0c    0x12c  stm32f2xx_gpio.o [1]
  .text              ro code  0x08017f38     0x76  ABImemcpy.o [6]
  .text              ro code  0x08017fb0    0x68c  ManageBusPulse.o [1]
  .text              ro code  0x0801863c    0x1d4  DriveAdc.o [1]
  .text              ro code  0x08018810    0x28c  e2prom_93C86.o [1]
  .text              ro code  0x08018a9c     0x66  ABImemset.o [6]
  .text              ro code  0x08018b04    0x1a8  DriveUsart6.o [1]
  .text              ro code  0x08018cac    0x73c  xprintfsmall.o [3]
  .text              ro code  0x080193e8      0xe  ManageProtocol.o [1]
  .text              ro code  0x080193f8   0x2608  ManageCanBus.o [1]
  .text              ro code  0x0801ba00    0x41e  MileMeter.o [1]
  .text              ro code  0x0801be20    0x4a6  InterfaceIap.o [1]
  .text              ro code  0x0801c2c8    0x140  NewBusOut.o [1]
  .text              ro code  0x0801c408      0x8  atoi.o [3]
  .text              ro code  0x0801c410    0x49c  SpiFlash.o [1]
  .text              ro code  0x0801c8ac     0x44  strcpy.o [6]
  .text              ro code  0x0801c8f0     0x2c  strstr.o [3]
  .text              ro code  0x0801c91c     0x42  strcmp.o [6]
  .text              ro code  0x0801c960     0x9c  misc.o [1]
  .text              ro code  0x0801c9fc     0x32  ABImemset48.o [6]
  .text              ro code  0x0801ca30      0xc  stm32f2xx_crc.o [1]
  .text              ro code  0x0801ca3c    0x3b4  InterfaceInCom.o [1]
  .text              ro code  0x0801cdf0     0x10  stm32f2xx_wwdg.o [1]
  .text              ro code  0x0801ce00     0x24  stm32f2xx_dbgmcu.o [1]
  .text              ro code  0x0801ce24     0x54  DriveSysTick.o [1]
  .text              ro code  0x0801ce78    0x158  DriveUsart2.o [1]
  .text              ro code  0x0801cfd0    0x498  DriveCan2.o [1]
  .text              ro code  0x0801d468     0x54  stm32f2xx_syscfg.o [1]
  .text              ro code  0x0801d4bc     0x30  I32ToDbl.o [5]
  .text              ro code  0x0801d4ec    0x1a2  DblMul.o [5]
  .text              ro code  0x0801d690     0x58  DblToI32.o [5]
  .text              ro code  0x0801d6e8    0x1da  stm32f2xx_adc.o [1]
  .text              ro code  0x0801d8c2     0x20  xmbtowc.o [3]
  .text              ro code  0x0801d8e4     0x58  memchr.o [6]
  .text              ro code  0x0801d93c      0xa  xmbcurmax.o [3]
  .text              ro code  0x0801d948     0xbc  xxmemxmalloc.o [3]
  .text              ro code  0x0801da04     0x1a  xwctomb.o [3]
  .text              ro code  0x0801da20     0x88  xxmemxfree.o [3]
  .text              ro code  0x0801daa8     0x78  ABImemmove.o [6]
  .text              ro code  0x0801db20    0x4d8  stm32f2xx_can.o [1]
  .text              ro code  0x0801dff8    0xa20  encryption.o [4]
  .text              ro code  0x0801ea18    0xadc  MD5_NEW.o [1]
  .text              ro code  0x0801f4f4     0x2e  DblCmpGe.o [5]
  .text              ro code  0x0801f524     0xe8  DblAdd.o [5]
  .text              ro code  0x0801f60c    0x246  DblDiv.o [5]
  .text              ro code  0x0801f854     0x20  DblCmpEq.o [5]
  .text              ro code  0x0801f874      0x6  cos.o [5]
  .text              ro code  0x0801f87c    0x180  DblSub.o [5]
  .text              ro code  0x0801f9fc      0x6  sin.o [5]
  .text              ro code  0x0801fa04     0xf0  sqrt.o [5]
  .text              ro code  0x0801faf4    0x174  xstoul.o [3]
  .text              ro code  0x0801fc68     0x24  setlocale.o [3]
  .text              ro code  0x0801fc8c     0x5c  xencoding_sb.o [3]
  .text              ro code  0x0801fce8    0x1b4  xsyslock.o [3]
  .text              ro code  0x0801fe9c     0x28  xgetmemchunk.o [3]
  .text              ro code  0x0801fec4    0x1f0  xsin.o [5]
  .text              ro code  0x080200b4      0xc  iarEdom.o [6]
  .text              ro code  0x080200c0     0x14  isxxx.o [3]
  .text              ro code  0x080200d4     0x14  tolower.o [3]
  .text              ro code  0x080200e8      0xc  errno.o [3]
  .text              ro code  0x080200f4      0x2  xtls.o [3]
  .text              ro code  0x080200f6      0x8  xmtx2.o [3]
  .text              ro code  0x080200fe      0x8  xmtx.o [3]
  .text              ro code  0x08020108    0x170  xquad.o [5]
  .text              ro code  0x08020278     0x2e  DblCmpLe.o [5]
  .text              ro code  0x080202a6     0x14  xlocale_c.o [3]
  .text              ro code  0x080202ba      0xc  xlocale_c.o [3]
  .text              ro code  0x080202c6     0x80  xdint.o [5]
  .text              ro code  0x08020348    0x1a8  fmod.o [5]
  .rodata            const    0x080204f0    0x400  ManagePacketUpdate.o [1]
  .rodata            const    0x080208f0    0x39c  GprsNetwork.o [1]
  .text              ro code  0x08020c8c    0x178  ManageWorkStat.o [1]
  .text              ro code  0x08020e04    0x150  XShHandles.o [3]
  .text              ro code  0x08020f54    0x124  system_stm32f2xx.o [1]
  .rodata            const    0x08021078     0xf4  ManageDs18b20.o [1]
  .text              ro code  0x0802116c     0xd4  xfspos.o [3]
  .text              ro code  0x08021240     0xb4  fflush.o [3]
  .text              ro code  0x080212f4      0xc  xfgpos.o [3]
  .text              ro code  0x08021300     0x4c  lseek.o [7]
  .text              ro code  0x0802134c     0x10  write.o [7]
  .text              ro code  0x0802135c     0x1e  dwrite.o [7]
  .text              ro code  0x0802137a     0x20  iarwstd.o [7]
  .text              ro code  0x0802139a     0x22  iarwrite.o [7]
  .text              ro code  0x080213bc     0x6c  iarttio.o [7]
  .text              ro code  0x08021428      0x8  XShttio.o [3]
  .rodata            const    0x08021430     0xc0  GprsNetwork.o [1]
  .text              ro code  0x080214f0     0xb8  xfwprep.o [3]
  .text              ro code  0x080215a8     0x24  fseek.o [3]
  .text              ro code  0x080215cc     0xb2  stm32f2xx_it.o [1]
  .text              ro code  0x08021680     0x2c  stm32f2xx_spi.o [1]
  .text              ro code  0x080216ac     0xa0  packbits_init3.o [6]
  .rodata            const    0x0802174c     0x90  GprsNetwork.o [1]
  .text              ro code  0x080217dc     0x82  fclose.o [3]
  .text              ro code  0x08021860     0x80  xfofind.o [3]
  .text              ro code  0x080218e0     0x1a  close.o [7]
  .text              ro code  0x080218fa     0x16  remove.o [7]
  .rodata            const    0x08021910     0x68  AdapterParameter.o [1]
  .text              ro code  0x08021978     0x58  xcloseall.o [3]
  .rodata            const    0x080219d0     0x54  InterfaceIap.o [1]
  .text              ro code  0x08021a24     0x54  fputc.o [3]
  .rodata            const    0x08021a78     0x40  InterfaceIap.o [1]
  .rodata            const    0x08021ab8     0x40  main.o [1]
  .rodata            const    0x08021af8     0x3c  AdapterParameter.o [1]
  .rodata            const    0x08021b34     0x38  GprsNetwork.o [1]
  .rodata            const    0x08021b6c     0x34  GprsNetwork.o [1]
  .rodata            const    0x08021ba0     0x34  InterfaceIap.o [1]
  .rodata            const    0x08021bd4     0x34  ManageProtocol.o [1]
  .rodata            const    0x08021c08     0x34  ManageProtocol.o [1]
  .rodata            const    0x08021c3c     0x34  ManageProtocol.o [1]
  .rodata            const    0x08021c70     0x34  ManageProtocol.o [1]
  .rodata            const    0x08021ca4     0x34  ManageProtocol.o [1]
  .rodata            const    0x08021cd8     0x30  AdapterParameter.o [1]
  .rodata            const    0x08021d08     0x30  AdapterParameter.o [1]
  .rodata            const    0x08021d38     0x30  GprsNetwork.o [1]
  .rodata            const    0x08021d68     0x30  GprsNetwork.o [1]
  .text              ro code  0x08021d98     0x2c  data_init3.o [6]
  .rodata            const    0x08021dc4     0x28  DriveCan2.o [1]
  .rodata            const    0x08021dec     0x28  GprsNetwork.o [1]
  .rodata            const    0x08021e14     0x28  GprsNetwork.o [1]
  .rodata            const    0x08021e3c     0x24  AdapterParameter.o [1]
  .rodata            const    0x08021e60     0x24  GprsNetwork.o [1]
  .rodata            const    0x08021e84     0x24  GprsNetwork.o [1]
  .rodata            const    0x08021ea8     0x24  ManageExDev.o [1]
  .rodata            const    0x08021ecc     0x24  ManageExDev.o [1]
  .rodata            const    0x08021ef0     0x24  ManageExDev.o [1]
  .rodata            const    0x08021f14     0x24  ManageExDev.o [1]
  .rodata            const    0x08021f38     0x24  ManageExDev.o [1]
  .rodata            const    0x08021f5c     0x24  ManageExDev.o [1]
  .rodata            const    0x08021f80     0x24  ManageExDev.o [1]
  .iar.init_table    const    0x08021fa4     0x2c  - Linker created -
  .rodata            const    0x08021fd0     0x20  FunctionIo.o [1]
  .rodata            const    0x08021ff0     0x20  GprsNetwork.o [1]
  .rodata            const    0x08022010     0x20  GprsNetwork.o [1]
  .rodata            const    0x08022030     0x20  GprsNetwork.o [1]
  .rodata            const    0x08022050     0x20  GprsNetwork.o [1]
  .rodata            const    0x08022070     0x20  GprsNetwork.o [1]
  .rodata            const    0x08022090     0x20  InterfaceSystem.o [1]
  .rodata            const    0x080220b0     0x20  ModuleGps.o [1]
  .rodata            const    0x080220d0     0x1c  AdapterParameter.o [1]
  .rodata            const    0x080220ec     0x1c  AdapterParameter.o [1]
  .rodata            const    0x08022108     0x1c  AdapterParameter.o [1]
  .rodata            const    0x08022124     0x1c  GprsNetwork.o [1]
  .rodata            const    0x08022140     0x1c  GprsNetwork.o [1]
  .rodata            const    0x0802215c     0x1c  GprsNetwork.o [1]
  .rodata            const    0x08022178     0x1c  ManageProtocol.o [1]
  .rodata            const    0x08022194     0x1c  ManageRemoteUpdate.o [1]
  .rodata            const    0x080221b0     0x1c  ManageRemoteUpdate.o [1]
  .rodata            const    0x080221cc     0x1c  ManageRemoteUpdate.o [1]
  .rodata            const    0x080221e8     0x1c  ManageRemoteUpdate.o [1]
  .text              ro code  0x08022204     0x1c  startup_stm32f2xx.o [1]
  .rodata            const    0x08022220     0x18  GprsNetwork.o [1]
  .rodata            const    0x08022238     0x18  GprsNetwork.o [1]
  .rodata            const    0x08022250     0x18  ManageExDev.o [1]
  .rodata            const    0x08022268     0x18  ManageProtocol.o [1]
  .rodata            const    0x08022280     0x18  ManageRemoteUpdate.o [1]
  .text              ro code  0x08022298     0x16  cmain.o [6]
  .text              ro code  0x080222ae      0x4  low_level_init.o [3]
  .text              ro code  0x080222b2      0x4  exit.o [3]
  .text              ro code  0x080222b8     0x12  cexit.o [6]
  .text              ro code  0x080222cc     0x14  exit.o [7]
  .text              ro code  0x080222e0     0x16  xprout.o [3]
  .text              ro code  0x080222f8      0xc  putchar.o [3]
  .rodata            const    0x08022304     0x14  AdapterParameter.o [1]
  .rodata            const    0x08022318     0x14  AdapterParameter.o [1]
  .rodata            const    0x0802232c     0x14  AdapterParameter.o [1]
  .rodata            const    0x08022340     0x14  AdapterSms.o [1]
  .rodata            const    0x08022354     0x14  GprsNetwork.o [1]
  .rodata            const    0x08022368     0x14  GprsNetwork.o [1]
  .rodata            const    0x0802237c     0x14  GprsNetwork.o [1]
  .rodata            const    0x08022390     0x14  GprsNetwork.o [1]
  .rodata            const    0x080223a4     0x14  ManageKeyUnlock.o [1]
  .rodata            const    0x080223b8     0x10  AdapterParameter.o [1]
  .rodata            const    0x080223c8     0x10  AdapterSms.o [1]
  .rodata            const    0x080223d8     0x10  AdapterSms.o [1]
  .rodata            const    0x080223e8     0x10  EeyeLib.o [1]
  .rodata            const    0x080223f8     0x10  GprsNetwork.o [1]
  .rodata            const    0x08022408     0x10  GprsNetwork.o [1]
  .rodata            const    0x08022418     0x10  GprsNetwork.o [1]
  .rodata            const    0x08022428     0x10  GprsNetwork.o [1]
  .rodata            const    0x08022438     0x10  GprsNetwork.o [1]
  .rodata            const    0x08022448     0x10  GprsNetwork.o [1]
  .rodata            const    0x08022458     0x10  GprsNetwork.o [1]
  .rodata            const    0x08022468     0x10  GprsNetwork.o [1]
  .rodata            const    0x08022478     0x10  GprsNetwork.o [1]
  .rodata            const    0x08022488     0x10  GprsNetwork.o [1]
  .rodata            const    0x08022498     0x10  GprsNetwork.o [1]
  .rodata            const    0x080224a8     0x10  GprsNetwork.o [1]
  .rodata            const    0x080224b8     0x10  ManageCanBus.o [1]
  .rodata            const    0x080224c8     0x10  ManageProtocol.o [1]
  .rodata            const    0x080224d8     0x10  ManageProtocol.o [1]
  .rodata            const    0x080224e8     0x10  ManageProtocol.o [1]
  .rodata            const    0x080224f8     0x10  ManageRemoteUpdate.o [1]
  .rodata            const    0x08022508     0x10  ManageRemoteUpdate.o [1]
  .rodata            const    0x08022518     0x10  ManageRemoteUpdate.o [1]
  .rodata            const    0x08022528     0x10  ManageRemoteUpdate.o [1]
  .rodata            const    0x08022538     0x10  ManageRemoteUpdate.o [1]
  .rodata            const    0x08022548     0x10  ManageWorkStat.o [1]
  .rodata            const    0x08022558     0x10  ModuleGps.o [1]
  .rodata            const    0x08022568     0x10  rtc.o [1]
  .rodata            const    0x08022578      0xc  GprsNetwork.o [1]
  .rodata            const    0x08022584      0xc  GprsNetwork.o [1]
  .rodata            const    0x08022590      0xc  GprsNetwork.o [1]
  .rodata            const    0x0802259c      0xc  GprsNetwork.o [1]
  .rodata            const    0x080225a8      0xc  GprsNetwork.o [1]
  .rodata            const    0x080225b4      0xc  GprsNetwork.o [1]
  .rodata            const    0x080225c0      0xc  GprsNetwork.o [1]
  .rodata            const    0x080225cc      0xc  GprsNetwork.o [1]
  .rodata            const    0x080225d8      0xc  GprsNetwork.o [1]
  .rodata            const    0x080225e4      0xc  GprsNetwork.o [1]
  .rodata            const    0x080225f0      0xc  GprsNetwork.o [1]
  .rodata            const    0x080225fc      0xc  ManageExDev.o [1]
  .rodata            const    0x08022608      0xc  ManageProtocol.o [1]
  .rodata            const    0x08022614      0xc  ManageProtocol.o [1]
  .rodata            const    0x08022620      0xc  ManageProtocol.o [1]
  .rodata            const    0x0802262c      0xc  ManageProtocol.o [1]
  .rodata            const    0x08022638      0xc  ManageProtocol.o [1]
  .rodata            const    0x08022644      0xc  ManageRemoteUpdate.o [1]
  .rodata            const    0x08022650      0xc  ManageRemoteUpdate.o [1]
  .text              ro code  0x0802265c      0xc  cstartup_M.o [6]
  .rodata            const    0x08022668      0x8  AdapterParameter.o [1]
  .rodata            const    0x08022670      0x8  AdapterParameter.o [1]
  .rodata            const    0x08022678      0x8  AdapterSms.o [1]
  .rodata            const    0x08022680      0x8  AdapterSms.o [1]
  .rodata            const    0x08022688      0x8  AdapterSms.o [1]
  .rodata            const    0x08022690      0x8  GprsNetwork.o [1]
  .rodata            const    0x08022698      0x8  GprsNetwork.o [1]
  .rodata            const    0x080226a0      0x8  GprsNetwork.o [1]
  .rodata            const    0x080226a8      0x8  GprsNetwork.o [1]
  .rodata            const    0x080226b0      0x8  GprsNetwork.o [1]
  .rodata            const    0x080226b8      0x8  GprsNetwork.o [1]
  .rodata            const    0x080226c0      0x8  GprsNetwork.o [1]
  .rodata            const    0x080226c8      0x8  GprsNetwork.o [1]
  .rodata            const    0x080226d0      0x8  GprsNetwork.o [1]
  .rodata            const    0x080226d8      0x8  GprsNetwork.o [1]
  .rodata            const    0x080226e0      0x8  ManageExDev.o [1]
  .rodata            const    0x080226e8      0x8  ManageProtocol.o [1]
  .rodata            const    0x080226f0      0x8  ManageProtocol.o [1]
  .rodata            const    0x080226f8      0x8  ManageProtocol.o [1]
  .rodata            const    0x08022700      0x8  ManageProtocol.o [1]
  .rodata            const    0x08022708      0x8  ManageProtocol.o [1]
  .rodata            const    0x08022710      0x8  ManageProtocol.o [1]
  .rodata            const    0x08022718      0x8  ManageProtocol.o [1]
  .rodata            const    0x08022720      0x8  ModuleGps.o [1]
  .rodata            const    0x08022728      0x8  ModuleGps.o [1]
  .rodata            const    0x08022730      0x4  GprsNetwork.o [1]
  .rodata            const    0x08022734      0x4  GprsNetwork.o [1]
  .rodata            const    0x08022738      0x4  GprsNetwork.o [1]
  .rodata            const    0x0802273c      0x4  GprsNetwork.o [1]
  .rodata            const    0x08022740      0x4  GprsNetwork.o [1]
  .rodata            const    0x08022744      0x4  GprsNetwork.o [1]
  .rodata            const    0x08022748      0x4  InterfaceSystem.o [1]
  .rodata            const    0x0802274c      0x4  InterfaceSystem.o [1]
  .rodata            const    0x08022750      0x4  InterfaceSystem.o [1]
  .rodata            const    0x08022754      0x4  ManageCanBus.o [1]
  .rodata            const    0x08022758      0x4  ManageCanBus.o [1]
  .rodata            const    0x0802275c      0x4  ManageCanBus.o [1]
  .rodata            const    0x08022760      0x4  ManageDs18b20.o [1]
  .rodata            const    0x08022764      0x4  ManageKeyUnlock.o [1]
  .rodata            const    0x08022768      0x4  ManageKeyUnlock.o [1]
  .rodata            const    0x0802276c      0x4  ManageKeyUnlock.o [1]
  .rodata            const    0x08022770      0x4  ManagePortControl.o [1]
  .rodata            const    0x08022774      0x4  ManagePortControl.o [1]
  .rodata            const    0x08022778      0x4  ManagePortControl.o [1]
  .rodata            const    0x0802277c      0x4  ManagePortControl.o [1]
  .rodata            const    0x08022780      0x4  ManagePortControl.o [1]
  .rodata            const    0x08022784      0x4  ManageProtocol.o [1]
  .rodata            const    0x08022788      0x4  ManageVoltSample.o [1]
  .rodata            const    0x0802278c      0x4  ManageVoltSample.o [1]
  .rodata            const    0x08022790      0x4  ModuleGps.o [1]
  .rodata            const    0x08022794      0x4  ModuleGps.o [1]
  .rodata            const    0x08022798      0x4  main.o [1]
  .rodata            const    0x0802279c      0x4  main.o [1]
  .rodata            const    0x080227a0      0x4  main.o [1]
  .text              ro code  0x080227a4      0x4  startup_stm32f2xx.o [1]
  .text              ro code  0x080227a8      0x4  startup_stm32f2xx.o [1]
  .text              ro code  0x080227ac      0x4  startup_stm32f2xx.o [1]
  .text              ro code  0x080227b0      0x4  startup_stm32f2xx.o [1]
  .text              ro code  0x080227b4      0x4  startup_stm32f2xx.o [1]
  .text              ro code  0x080227b8      0x4  startup_stm32f2xx.o [1]
  .text              ro code  0x080227bc      0x4  startup_stm32f2xx.o [1]
  .text              ro code  0x080227c0      0x4  startup_stm32f2xx.o [1]
  .text              ro code  0x080227c4      0x4  startup_stm32f2xx.o [1]
  .text              ro code  0x080227c8      0x4  startup_stm32f2xx.o [1]
  .text              ro code  0x080227cc      0x4  startup_stm32f2xx.o [1]
  .text              ro code  0x080227d0      0x4  startup_stm32f2xx.o [1]
  .text              ro code  0x080227d4      0x4  startup_stm32f2xx.o [1]
  .text              ro code  0x080227d8      0x4  startup_stm32f2xx.o [1]
  .text              ro code  0x080227dc      0x4  startup_stm32f2xx.o [1]
  .text              ro code  0x080227e0      0x4  startup_stm32f2xx.o [1]
  .text              ro code  0x080227e4      0x4  startup_stm32f2xx.o [1]
  .text              ro code  0x080227e8      0x4  startup_stm32f2xx.o [1]
  .text              ro code  0x080227ec      0x4  startup_stm32f2xx.o [1]
  .text              ro code  0x080227f0      0x4  startup_stm32f2xx.o [1]
  .text              ro code  0x080227f4      0x4  startup_stm32f2xx.o [1]
  .text              ro code  0x080227f8      0x4  startup_stm32f2xx.o [1]
  .text              ro code  0x080227fc      0x4  startup_stm32f2xx.o [1]
  .text              ro code  0x08022800      0x4  startup_stm32f2xx.o [1]
  .text              ro code  0x08022804      0x4  startup_stm32f2xx.o [1]
  .text              ro code  0x08022808      0x4  startup_stm32f2xx.o [1]
  .text              ro code  0x0802280c      0x4  startup_stm32f2xx.o [1]
  .text              ro code  0x08022810      0x4  startup_stm32f2xx.o [1]
  .text              ro code  0x08022814      0x4  startup_stm32f2xx.o [1]
  .text              ro code  0x08022818      0x4  startup_stm32f2xx.o [1]
  .text              ro code  0x0802281c      0x4  startup_stm32f2xx.o [1]
  .text              ro code  0x08022820      0x4  startup_stm32f2xx.o [1]
  .text              ro code  0x08022824      0x4  startup_stm32f2xx.o [1]
  .text              ro code  0x08022828      0x4  startup_stm32f2xx.o [1]
  .text              ro code  0x0802282c      0x4  startup_stm32f2xx.o [1]
  .text              ro code  0x08022830      0x4  startup_stm32f2xx.o [1]
  .text              ro code  0x08022834      0x4  startup_stm32f2xx.o [1]
  .text              ro code  0x08022838      0x4  startup_stm32f2xx.o [1]
  .text              ro code  0x0802283c      0x4  startup_stm32f2xx.o [1]
  .text              ro code  0x08022840      0x4  startup_stm32f2xx.o [1]
  .text              ro code  0x08022844      0x4  startup_stm32f2xx.o [1]
  .text              ro code  0x08022848      0x4  startup_stm32f2xx.o [1]
  .text              ro code  0x0802284c      0x4  startup_stm32f2xx.o [1]
  .text              ro code  0x08022850      0x4  startup_stm32f2xx.o [1]
  .text              ro code  0x08022854      0x4  startup_stm32f2xx.o [1]
  .text              ro code  0x08022858      0x4  startup_stm32f2xx.o [1]
  .text              ro code  0x0802285c      0x4  startup_stm32f2xx.o [1]
  .text              ro code  0x08022860      0x4  startup_stm32f2xx.o [1]
  .text              ro code  0x08022864      0x4  startup_stm32f2xx.o [1]
  .text              ro code  0x08022868      0x4  startup_stm32f2xx.o [1]
  .text              ro code  0x0802286c      0x4  startup_stm32f2xx.o [1]
  .text              ro code  0x08022870      0x4  startup_stm32f2xx.o [1]
  .text              ro code  0x08022874      0x4  startup_stm32f2xx.o [1]
  .text              ro code  0x08022878      0x4  startup_stm32f2xx.o [1]
  .text              ro code  0x0802287c      0x4  startup_stm32f2xx.o [1]
  .text              ro code  0x08022880      0x4  startup_stm32f2xx.o [1]
  .text              ro code  0x08022884      0x4  startup_stm32f2xx.o [1]
  .text              ro code  0x08022888      0x4  startup_stm32f2xx.o [1]
  .text              ro code  0x0802288c      0x4  startup_stm32f2xx.o [1]
  .text              ro code  0x08022890      0x4  startup_stm32f2xx.o [1]
  .text              ro code  0x08022894      0x4  startup_stm32f2xx.o [1]
  .text              ro code  0x08022898      0x4  startup_stm32f2xx.o [1]
  .text              ro code  0x0802289c      0x4  startup_stm32f2xx.o [1]
  .text              ro code  0x080228a0      0x4  startup_stm32f2xx.o [1]
  .text              ro code  0x080228a4      0x4  startup_stm32f2xx.o [1]
  .text              ro code  0x080228a8      0x4  startup_stm32f2xx.o [1]
  .text              ro code  0x080228ac      0x4  startup_stm32f2xx.o [1]
  .text              ro code  0x080228b0      0x4  startup_stm32f2xx.o [1]
  .text              ro code  0x080228b4      0x4  startup_stm32f2xx.o [1]
  .text              ro code  0x080228b8      0x4  startup_stm32f2xx.o [1]
  .text              ro code  0x080228bc      0x4  startup_stm32f2xx.o [1]
  .text              ro code  0x080228c0      0x4  startup_stm32f2xx.o [1]
  .text              ro code  0x080228c4      0x4  startup_stm32f2xx.o [1]
  .text              ro code  0x080228c8      0x4  startup_stm32f2xx.o [1]
  .text              ro code  0x080228cc      0x4  startup_stm32f2xx.o [1]
  .text              ro code  0x080228d0      0x4  startup_stm32f2xx.o [1]
  .text              ro code  0x080228d4      0x4  startup_stm32f2xx.o [1]
  .text              ro code  0x080228d8      0x4  startup_stm32f2xx.o [1]
  .text              ro code  0x080228dc      0x4  startup_stm32f2xx.o [1]
  .text              ro code  0x080228e0      0x4  startup_stm32f2xx.o [1]
  .text              ro code  0x080228e4      0x4  startup_stm32f2xx.o [1]
  .text              ro code  0x080228e8      0x4  startup_stm32f2xx.o [1]
  .text              ro code  0x080228ec      0x4  startup_stm32f2xx.o [1]
  .text              ro code  0x080228f0      0x4  startup_stm32f2xx.o [1]
  .text              ro code  0x080228f4      0x4  startup_stm32f2xx.o [1]
  .text              ro code  0x080228f8      0x4  startup_stm32f2xx.o [1]
  .text              ro code  0x080228fc      0x4  startup_stm32f2xx.o [1]
  .text              ro code  0x08022900      0x4  startup_stm32f2xx.o [1]
  .text              ro code  0x08022904      0x4  startup_stm32f2xx.o [1]
  .text              ro code  0x08022908      0x4  startup_stm32f2xx.o [1]
  .text              ro code  0x0802290c      0x0  cstart_clearlocks.o [6]
  .text              ro code  0x0802290c      0x0  cstart_closeall.o [6]
  .rodata            const    0x0802290c      0x0  bwt_init3c.o [6]
  Initializer bytes  ro data  0x0802290c     0xa9  <for P2 s0>
                            - 0x080229b5  0x1e831

"P2", part 1 of 3:                          0x158
  P2 s0                       0x20000000    0x156  <Init block>
    .data            inited   0x20000000     0x40  MD5_NEW.o [1]
    .data            inited   0x20000040     0x40  xfiles.o [3]
    .data            inited   0x20000080     0x40  xfiles.o [3]
    .data            inited   0x200000c0     0x40  xfiles.o [3]
    .data            inited   0x20000100     0x20  xfiles.o [3]
    .data            inited   0x20000120     0x18  GprsNetwork.o [1]
    .data            inited   0x20000138     0x10  stm32f2xx_rcc.o [1]
    .data            inited   0x20000148      0x8  XShttio.o [3]
    .data            inited   0x20000150      0x1  ManageCanBus.o [1]
    .data            inited   0x20000151      0x1  ManageCanBus.o [1]
    .data            inited   0x20000152      0x1  ManageKeyUnlock.o [1]
    .data            inited   0x20000153      0x1  ModuleGps.o [1]
    .data            inited   0x20000154      0x1  hmacsha1.o [1]
    .data            inited   0x20000155      0x1  hmacsha1.o [1]
                            - 0x20000156    0x156

"P2", part 2 of 3:                         0xd368
  .bss               zero     0x20000158   0x5028  ManageRemoteUpdate.o [1]
  .bss               zero     0x20005180   0x1394  ManageCanBus.o [1]
  .bss               zero     0x20006514    0x880  GprsNetwork.o [1]
  .bss               zero     0x20006d94    0x810  ManagePacketUpdate.o [1]
  .bss               zero     0x200075a4    0x800  ManageCanBus.o [1]
  .bss               zero     0x20007da4    0x800  ManageCanBus.o [1]
  .bss               zero     0x200085a4    0x664  ManageProtocol.o [1]
  .bss               zero     0x20008c08    0x51c  ManageCanBus.o [1]
  .bss               zero     0x20009124    0x480  hmacsha1.o [1]
  .bss               zero     0x200095a4    0x450  ManageAlarm.o [1]
  .bss               zero     0x200099f4    0x414  InterfaceInCom.o [1]
  .bss               zero     0x20009e08    0x410  ManageExDev.o [1]
  .bss               zero     0x2000a218    0x400  ManageCanBus.o [1]
  .bss               zero     0x2000a618    0x334  ManageProtocol.o [1]
  .bss               zero     0x2000a94c    0x334  ManageProtocol.o [1]
  .bss               zero     0x2000ac80    0x334  ManageProtocol.o [1]
  .bss               zero     0x2000afb4    0x260  GprsNetwork.o [1]
  .bss               zero     0x2000b214    0x258  ManageBlindArea.o [1]
  .bss               zero     0x2000b46c    0x258  ManageCanBus.o [1]
  .bss               zero     0x2000b6c4    0x204  GprsNetwork.o [1]
  .bss               zero     0x2000b8c8    0x204  GprsNetwork.o [1]
  .bss               zero     0x2000bacc    0x200  ManageBlindArea.o [1]
  .bss               zero     0x2000bccc    0x190  ManageProtocol.o [1]
  .bss               zero     0x2000be5c    0x190  ManageProtocol.o [1]
  .bss               zero     0x2000bfec    0x138  GprsNetwork.o [1]
  .bss               zero     0x2000c124    0x10c  ManagePacketUpdate.o [1]
  .bss               zero     0x2000c230     0xfc  GprsNetwork.o [1]
  .bss               zero     0x2000c32c     0xfc  OS_TASK.o [1]
  .bss               zero     0x2000c428     0xe4  ManageRemoteUpdate.o [1]
  .bss               zero     0x2000c50c     0xe0  ManageVoltSample.o [1]
  .bss               zero     0x2000c5ec     0xd4  ManageVoltSample.o [1]
  .bss               zero     0x2000c6c0     0xc8  ManagePosTrack.o [1]
  .bss               zero     0x2000c788     0x98  GprsNetwork.o [1]
  .bss               zero     0x2000c820     0x88  ModuleGps.o [1]
  .bss               zero     0x2000c8a8     0x84  GprsNetwork.o [1]
  .bss               zero     0x2000c92c     0x80  hmacsha1.o [1]
  .bss               zero     0x2000c9ac     0x80  XShHandles.o [3]
  __DLIB_PERTHREAD   zero     0x2000ca2c     0x74  setlocale.o [3]
  .bss               zero     0x2000caa0     0x70  ManageBusPulse.o [1]
  .bss               zero     0x2000cb10     0x70  ModuleGps.o [1]
  .bss               zero     0x2000cb80     0x68  ManageCanBus.o [1]
  .bss               zero     0x2000cbe8     0x64  ManageLockCar.o [1]
  .bss               zero     0x2000cc4c     0x60  ManageCanBus.o [1]
  .bss               zero     0x2000ccac     0x58  MD5_NEW.o [1]
  .bss               zero     0x2000cd04     0x54  ManagePortControl.o [1]
  .bss               zero     0x2000cd58     0x50  xfiles.o [3]
  .bss               zero     0x2000cda8     0x50  xfiles.o [3]
  .bss               zero     0x2000cdf8     0x48  ManageAlarm.o [1]
  .bss               zero     0x2000ce40     0x44  GprsNetwork.o [1]
  .bss               zero     0x2000ce84     0x40  MD5_NEW.o [1]
  .bss               zero     0x2000cec4     0x40  hmacsha1.o [1]
  .bss               zero     0x2000cf04     0x40  hmacsha1.o [1]
  .bss               zero     0x2000cf44     0x40  hmacsha1.o [1]
  .bss               zero     0x2000cf84     0x3c  ManageWorkStat.o [1]
  .bss               zero     0x2000cfc0     0x38  xsyslock.o [3]
  .bss               zero     0x2000cff8     0x34  AdapterSms.o [1]
  .bss               zero     0x2000d02c     0x34  AdapterSms.o [1]
  .bss               zero     0x2000d060     0x34  GprsNetwork.o [1]
  .bss               zero     0x2000d094     0x34  ManageRemoteUpdate.o [1]
  .bss               zero     0x2000d0c8     0x34  ManageRemoteUpdate.o [1]
  .bss               zero     0x2000d0fc     0x2c  ManageCanBus.o [1]
  .bss               zero     0x2000d128     0x28  GprsNetwork.o [1]
  .bss               zero     0x2000d150     0x28  ManagePosTrack.o [1]
  .bss               zero     0x2000d178     0x28  ManagePosTrack.o [1]
  .bss               zero     0x2000d1a0     0x20  InterfaceSystem.o [1]
  .bss               zero     0x2000d1c0     0x20  ManageProtocol.o [1]
  .bss               zero     0x2000d1e0     0x20  OS_EVENT.o [1]
  .bss               zero     0x2000d200     0x1c  InterfaceIap.o [1]
  .bss               zero     0x2000d21c     0x18  InterfaceSystem.o [1]
  .bss               zero     0x2000d234     0x18  InterfaceSystem.o [1]
  .bss               zero     0x2000d24c     0x18  ManageKeyUnlock.o [1]
  .bss               zero     0x2000d264     0x18  ManageKeyUnlock.o [1]
  .bss               zero     0x2000d27c     0x18  ManageKeyUnlock.o [1]
  .bss               zero     0x2000d294     0x18  ManageTime.o [1]
  .bss               zero     0x2000d2ac     0x14  ManagePacketUpdate.o [1]
  .bss               zero     0x2000d2c0     0x14  ManageProtocol.o [1]
  .bss               zero     0x2000d2d4     0x10  ManageBlindArea.o [1]
  .bss               zero     0x2000d2e4     0x10  ManageCanBus.o [1]
  .bss               zero     0x2000d2f4     0x10  ManageKeyUnlock.o [1]
  .bss               zero     0x2000d304     0x10  ManageProtocol.o [1]
  .bss               zero     0x2000d314     0x10  ManageProtocol.o [1]
  .bss               zero     0x2000d324      0xc  GprsNetwork.o [1]
  .bss               zero     0x2000d330     0x10  MileMeter.o [1]
  .bss               zero     0x2000d340     0x10  ModuleGps.o [1]
  .bss               zero     0x2000d350     0x10  ModuleGps.o [1]
  .bss               zero     0x2000d360      0xc  InterfaceSystem.o [1]
  .bss               zero     0x2000d36c      0xc  InterfaceSystem.o [1]
  .bss               zero     0x2000d378      0xc  ManageCanBus.o [1]
  .bss               zero     0x2000d384      0xc  ManagePacketUpdate.o [1]
  .bss               zero     0x2000d390      0xc  ManagePacketUpdate.o [1]
  .bss               zero     0x2000d39c      0xc  ManageProtocol.o [1]
  .bss               zero     0x2000d3a8      0xc  ManageProtocol.o [1]
  .bss               zero     0x2000d3b4      0xc  MileMeter.o [1]
  .bss               zero     0x2000d3c0      0xc  ModuleGps.o [1]
  .bss               zero     0x2000d3cc      0x8  InterfaceIap.o [1]
  .bss               zero     0x2000d3d4      0x8  ManageExDev.o [1]
  .bss               zero     0x2000d3dc      0x8  ManageProtocol.o [1]
  .bss               zero     0x2000d3e4      0x8  ManageWatchdog.o [1]
  .bss               zero     0x2000d3ec      0x8  ManageWorkStat.o [1]
  .bss               zero     0x2000d3f4      0x4  GprsNetwork.o [1]
  .bss               zero     0x2000d3f8      0x8  MileMeter.o [1]
  .bss               zero     0x2000d400      0x8  ModuleGps.o [1]
  .bss               zero     0x2000d408      0x8  OS_TASK.o [1]
  .bss               zero     0x2000d410      0x8  xxmemxmalloc.o [3]
  .bss               zero     0x2000d418      0x4  InterfaceSystem.o [1]
  .bss               zero     0x2000d41c      0x4  ManageCanBus.o [1]
  .bss               zero     0x2000d420      0x4  ManageCanBus.o [1]
  .bss               zero     0x2000d424      0x4  ManageCanBus.o [1]
  .bss               zero     0x2000d428      0x4  ManageCanBus.o [1]
  .bss               zero     0x2000d42c      0x4  ManageCanBus.o [1]
  .bss               zero     0x2000d430      0x4  ManageCanBus.o [1]
  .bss               zero     0x2000d434      0x4  ManageCanBus.o [1]
  .bss               zero     0x2000d438      0x4  ManageCanBus.o [1]
  .bss               zero     0x2000d43c      0x4  ManageCanBus.o [1]
  .bss               zero     0x2000d440      0x4  ManageCanBus.o [1]
  .bss               zero     0x2000d444      0x4  ManageCanBus.o [1]
  .bss               zero     0x2000d448      0x4  ManageCanBus.o [1]
  .bss               zero     0x2000d44c      0x4  ManageCanBus.o [1]
  .bss               zero     0x2000d450      0x4  ManageCanBus.o [1]
  .bss               zero     0x2000d454      0x4  ManageCanBus.o [1]
  .bss               zero     0x2000d458      0x4  ManageCanBus.o [1]
  .bss               zero     0x2000d45c      0x4  ManageDs18b20.o [1]
  .bss               zero     0x2000d460      0x4  ManageProtocol.o [1]
  .bss               zero     0x2000d464      0x4  ManageProtocol.o [1]
  .bss               zero     0x2000d468      0x4  ManageProtocol.o [1]
  .bss               zero     0x2000d46c      0x4  main.o [1]
  .bss               zero     0x2000d470      0x4  rtc.o [1]
  .bss               zero     0x2000d474      0x4  rtc.o [1]
  .bss               zero     0x2000d478      0x4  xgetmemchunk.o [3]
  __DLIB_PERTHREAD   zero     0x2000d47c      0x4  errno.o [3]
  .bss               zero     0x2000d480      0x2  GprsNetwork.o [1]
  .bss               zero     0x2000d482      0x2  InterfaceSystem.o [1]
  .bss               zero     0x2000d484      0x2  InterfaceSystem.o [1]
  .bss               zero     0x2000d486      0x2  ManageCanBus.o [1]
  .bss               zero     0x2000d488      0x2  ManageCanBus.o [1]
  .bss               zero     0x2000d48a      0x2  ManageCanBus.o [1]
  .bss               zero     0x2000d48c      0x2  ManageCanBus.o [1]
  .bss               zero     0x2000d48e      0x2  ManageCanBus.o [1]
  .bss               zero     0x2000d490      0x2  OS_TASK.o [1]
  .bss               zero     0x2000d492      0x2  main.o [1]
  .bss               zero     0x2000d494      0x1  DriveAdc.o [1]
  .bss               zero     0x2000d495      0x1  DriveAdc.o [1]
  .bss               zero     0x2000d496      0x1  DriverLis2dh.o [1]
  .bss               zero     0x2000d497      0x1  DriverLis2dh.o [1]
  .bss               zero     0x2000d498      0x1  DriverLis2dh.o [1]
  .bss               zero     0x2000d499      0x1  DriverLis2dh.o [1]
  .bss               zero     0x2000d49a      0x1  DriverLis2dh.o [1]
  .bss               zero     0x2000d49b      0x1  GprsNetwork.o [1]
  .bss               zero     0x2000d49c      0x1  GprsNetwork.o [1]
  .bss               zero     0x2000d49d      0x1  GprsNetwork.o [1]
  .bss               zero     0x2000d49e      0x1  GprsNetwork.o [1]
  .bss               zero     0x2000d49f      0x1  GprsNetwork.o [1]
  .bss               zero     0x2000d4a0      0x1  GprsNetwork.o [1]
  .bss               zero     0x2000d4a1      0x1  InterfaceSystem.o [1]
  .bss               zero     0x2000d4a2      0x1  InterfaceSystem.o [1]
  .bss               zero     0x2000d4a3      0x1  ManageBusPulse.o [1]
  .bss               zero     0x2000d4a4      0x1  ManageBusPulse.o [1]
  .bss               zero     0x2000d4a5      0x1  ManageBusPulse.o [1]
  .bss               zero     0x2000d4a6      0x1  ManageBusPulse.o [1]
  .bss               zero     0x2000d4a7      0x1  ManageCanBus.o [1]
  .bss               zero     0x2000d4a8      0x1  ManageCanBus.o [1]
  .bss               zero     0x2000d4a9      0x1  ManageCanBus.o [1]
  .bss               zero     0x2000d4aa      0x1  ManageCanBus.o [1]
  .bss               zero     0x2000d4ab      0x1  ManageCanBus.o [1]
  .bss               zero     0x2000d4ac      0x1  ManageCanBus.o [1]
  .bss               zero     0x2000d4ad      0x1  ManageFlashProgram.o [1]
  .bss               zero     0x2000d4ae      0x1  ManageFlashProgram.o [1]
  .bss               zero     0x2000d4af      0x1  ManageKeyUnlock.o [1]
  .bss               zero     0x2000d4b0      0x1  ManageKeyUnlock.o [1]
  .bss               zero     0x2000d4b1      0x1  ManageProtocol.o [1]
  .bss               zero     0x2000d4b2      0x1  ManageTime.o [1]
  .bss               zero     0x2000d4b3      0x1  ManageVoltSample.o [1]
  .bss               zero     0x2000d4b4      0x1  ManageVoltSample.o [1]
  .bss               zero     0x2000d4b5      0x1  ModuleGps.o [1]
  .bss               zero     0x2000d4b6      0x1  ModuleGps.o [1]
  .bss               zero     0x2000d4b7      0x1  NewBusOut.o [1]
  .bss               zero     0x2000d4b8      0x1  main.o [1]
                            - 0x2000d4b9   0xd361

"P2", part 3 of 3:                          0x600
  CSTACK                      0x2000d4c0    0x400  <Block>
    CSTACK           uninit   0x2000d4c0    0x400  <Block tail>
  HEAP                        0x2000d8c0    0x200  <Block>
    HEAP             uninit   0x2000d8c0    0x200  <Block tail>
                            - 0x2000dac0    0x600


*******************************************************************************
*** INIT TABLE
***

          Address     Size
          -------     ----
Zero (__iar_zero_init3)
    1 destination range, total size 0xd361:
          0x20000158  0xd361

Copy/packbits (__iar_packbits_init3)
    1 source range, total size 0xa9 (49% of destination):
          0x0802290c    0xa9
    1 destination range, total size 0x156:
          0x20000000   0x156



*******************************************************************************
*** MODULE SUMMARY
***

    Module                ro code  ro data  rw data
    ------                -------  -------  -------
F:\ÐìÏþ½¡\EGS502T2-ZL(AP-UDS)\iar\Debug\Obj: [1]
    AdapterParameter.o        980      472
    AdapterSms.o            2 228       76      104
    DriveAdc.o                468                 2
    DriveCan2.o             1 176       40
    DriveCrc.o                140
    DriveSysTick.o             84
    DriveUsart1.o             516
    DriveUsart2.o             344
    DriveUsart6.o             424
    DriverLis2dh.o          1 536                 5
    EeyeLib.o                 878       16
    FunctionIo.o              392       32
    GprsNetwork.o          21 868    2 428    4 872
    InterfaceIap.o          1 190      200       36
    InterfaceInCom.o          948             1 044
    InterfaceSystem.o       4 156       44      114
    MD5_NEW.o               2 780       31      216
    ManageAlarm.o             592             1 176
    ManageBlindArea.o       1 384             1 128
    ManageBusPulse.o        1 676               116
    ManageCanBus.o          9 736       29   12 394
    ManageDs18b20.o            88      248        4
    ManageExDev.o           3 048      296    1 048
    ManageFlashProgram.o    2 056                 2
    ManageKeyUnlock.o       1 860       32       91
    ManageLockCar.o         1 940               100
    ManagePacketUpdate.o    1 456    1 024    2 376
    ManagePortControl.o     3 412       20       84
    ManagePosTrack.o        2 568               280
    ManageProtocol.o       10 742      480    5 025
    ManageRemoteUpdate.o    2 208      240   20 852
    ManageTime.o              440                25
    ManageVoltSample.o      3 156        8      438
    ManageWatchdog.o          162                 8
    ManageWorkStat.o          376       16       68
    MileMeter.o             1 054                36
    ModuleGps.o             4 274       73      303
    NewBusOut.o               320                 1
    OS_EVENT.o                160                32
    OS_TASK.o                 546               262
    SpiFlash.o              1 180
    e2prom_93C86.o            652
    hmacsha1.o              1 140        1    1 474
    main.o                  1 172       76        7
    misc.o                    156
    myPrintf.o                  6
    rtc.o                     956       16        8
    startup_stm32f2xx.o       776
    stm32f2xx_adc.o           474
    stm32f2xx_can.o         1 240
    stm32f2xx_crc.o            12
    stm32f2xx_dbgmcu.o         36
    stm32f2xx_dma.o           680
    stm32f2xx_exti.o          200
    stm32f2xx_flash.o         676
    stm32f2xx_gpio.o          300
    stm32f2xx_it.o            178
    stm32f2xx_iwdg.o           56
    stm32f2xx_pwr.o            76
    stm32f2xx_rcc.o           916        8       16
    stm32f2xx_rtc.o         1 400
    stm32f2xx_spi.o            44
    stm32f2xx_syscfg.o         84
    stm32f2xx_systick.o       132
    stm32f2xx_usart.o         474
    stm32f2xx_wwdg.o           16
    system_stm32f2xx.o        292
    -----------------------------------------------
    Total:                106 686    5 906   53 747

command line: [2]
    -----------------------------------------------
    Total:

dl7M_tlf.a: [3]
    XShHandles.o              336               128
    XShttio.o                   8        4        8
    abs.o                       8
    atoi.o                      8
    errno.o                    12                 4
    exit.o                      4
    fclose.o                  130
    fflush.o                  180
    fputc.o                    84
    fseek.o                    36
    isxxx.o                    20
    low_level_init.o            4
    printf.o                   36
    putchar.o                  12
    setlocale.o                36               116
    sprintf.o                  52
    strncmp.o                  42
    strstr.o                   44
    tolower.o                  20
    xcloseall.o                88
    xencoding_sb.o             92
    xfgpos.o                   12
    xfiles.o                           111      384
    xfofind.o                 128
    xfspos.o                  212
    xfwprep.o                 184
    xgetmemchunk.o             40                 4
    xlocale_c.o                32
    xmbcurmax.o                10
    xmbtowc.o                  32
    xmtx.o                      8
    xmtx2.o                     8
    xprintfsmall.o          1 852
    xprout.o                   22
    xsprout.o                  10
    xstoul.o                  372
    xsyslock.o                436                56
    xtls.o                      2
    xwctomb.o                  26
    xxmemxfree.o              136
    xxmemxmalloc.o            188                 8
    -----------------------------------------------
    Total:                  4 962      115      708

encryption.a: [4]
    encryption.o            2 592
    -----------------------------------------------
    Total:                  2 592

m7M_tl.a: [5]
    DblAdd.o                  232
    DblCmpEq.o                 32
    DblCmpGe.o                 46
    DblCmpLe.o                 46
    DblDiv.o                  582
    DblMul.o                  418
    DblSub.o                  384
    DblToI32.o                 88
    I32ToDbl.o                 48
    cos.o                       6
    fmod.o                    424
    sin.o                       6
    sqrt.o                    240
    xdint.o                   128
    xquad.o                   368
    xsin.o                    496
    -----------------------------------------------
    Total:                  3 544

rt7M_tl.a: [6]
    ABImemclr4.o                6
    ABImemcpy.o               118
    ABImemmove.o              120
    ABImemset.o               102
    ABImemset48.o              50
    bwt_init3c.o
    cexit.o                    18
    cmain.o                    22
    cstart_clearlocks.o
    cstart_closeall.o
    cstartup_M.o               12
    data_init3.o               44
    iarEdom.o                  12
    memchr.o                   88
    memcmp.o                   98
    packbits_init3.o          160
    strchr.o                   22
    strcmp.o                   66
    strcpy.o                   68
    strlen.o                   54
    zero_init3.o               34
    -----------------------------------------------
    Total:                  1 094

shb_l.a: [7]
    close.o                    26
    dwrite.o                   30
    exit.o                     20
    iarttio.o                 108
    iarwrite.o                 34
    iarwstd.o                  32
    lseek.o                    76
    remove.o                   22
    write.o                    16
    -----------------------------------------------
    Total:                    364

    Gaps                       58
    Linker created                      44    1 536
---------------------------------------------------
    Grand Total:          119 300    6 065   55 991


*******************************************************************************
*** ENTRY LIST
***

Entry                      Address    Size  Type      Object
-----                      -------    ----  ----      ------
?main                   0x08022299          Code  Gb  cmain.o [6]
ADC_ClearFlag           0x0801d877     0x8  Code  Gb  stm32f2xx_adc.o [1]
ADC_ClearITPendingBit   0x0801d8b3    0x10  Code  Gb  stm32f2xx_adc.o [1]
ADC_Cmd                 0x0801d757    0x1a  Code  Gb  stm32f2xx_adc.o [1]
ADC_CommonInit          0x0801d735    0x22  Code  Gb  stm32f2xx_adc.o [1]
ADC_GetConversionValue  0x0801d83f     0x6  Code  Gb  stm32f2xx_adc.o [1]
ADC_GetITStatus         0x0801d87f    0x34  Code  Gb  stm32f2xx_adc.o [1]
ADC_IRQHandler          0x08018733    0xa2  Code  Gb  DriveAdc.o [1]
ADC_ITConfig            0x0801d855    0x22  Code  Gb  stm32f2xx_adc.o [1]
ADC_Init                0x0801d6e9    0x4c  Code  Gb  stm32f2xx_adc.o [1]
ADC_RegularChannelConfig
                        0x0801d771    0xc4  Code  Gb  stm32f2xx_adc.o [1]
ADC_SoftwareStartConv   0x0801d835     0xa  Code  Gb  stm32f2xx_adc.o [1]
APBAHBPrescTable        0x20000138    0x10  Data  Lc  stm32f2xx_rcc.o [1]
ASC                     0x080223e8    0x10  Data  Gb  EeyeLib.o [1]
ATQCFG                  0x0802215c    0x1c  Data  Gb  GprsNetwork.o [1]
ATQURCCFG               0x08022050    0x20  Data  Gb  GprsNetwork.o [1]
AbsoluteAddr            0x2000d434     0x4  Data  Gb  ManageCanBus.o [1]
AdapterSms_SetActiveSendSmsFlag
                        0x08012265     0x8  Code  Gb  AdapterSms.o [1]
AdapterSms_getBackupTelNumber
                        0x0801226d     0xc  Code  Gb  AdapterSms.o [1]
AdapterSms_getRecBackupTelNumber
                        0x0801228b     0xe  Code  Gb  AdapterSms.o [1]
AdapterSms_setBackupTelNumber
                        0x08012279    0x12  Code  Gb  AdapterSms.o [1]
AdapterSms_setRecBackupTelNumber
                        0x08012299    0x12  Code  Gb  AdapterSms.o [1]
Alarm_GetAlarmCount     0x0800b2cf     0x6  Code  Gb  ManageAlarm.o [1]
Alarm_addMsg            0x0800b259    0x76  Code  Gb  ManageAlarm.o [1]
AnalyExDevCmd           0x080136b7   0x4d2  Code  Gb  ManageExDev.o [1]
AnalyGpsMsg             0x0800bc39   0x400  Code  Gb  ModuleGps.o [1]
AnalyIapCmd             0x08013b89   0x10a  Code  Gb  ManageExDev.o [1]
AnalySatellitesNum      0x0800c055    0xcc  Code  Gb  ModuleGps.o [1]
AngleDet_msDelay        0x080160f9    0x26  Code  Lc  DriverLis2dh.o [1]
AngleDet_usDelay        0x080160dd    0x1c  Code  Lc  DriverLis2dh.o [1]
BCD2Byte                0x0801b185    0x64  Code  Gb  ManageCanBus.o [1]
BackupApn               0x080226a0     0x8  Data  Gb  GprsNetwork.o [1]
BackupIpPort            0x080226a8     0x8  Data  Gb  GprsNetwork.o [1]
BackupNamePwd           0x080225cc     0xc  Data  Gb  GprsNetwork.o [1]
BakupParameter          0x08022108    0x1c  Data  Gb  AdapterParameter.o [1]
BasicParamter           0x08022668     0x8  Data  Gb  AdapterParameter.o [1]
BaudrateTransform       0x0801a185    0x36  Code  Gb  ManageCanBus.o [1]
BlindParamter           0x0802232c    0x14  Data  Gb  AdapterParameter.o [1]
BusFault_Handler        0x080227b1          Code  Wk  startup_stm32f2xx.o [1]
BusPowerOff             0x0800a6c5    0x20  Code  Gb  InterfaceSystem.o [1]
BusPowerOn              0x0800a6a5    0x20  Code  Gb  InterfaceSystem.o [1]
BusPulseParamter        0x080220ec    0x1c  Data  Gb  AdapterParameter.o [1]
BusPulse_CleanBusFail   0x08018521    0x1a  Code  Gb  ManageBusPulse.o [1]
BusPulse_ClearnCanFail  0x080183f3    0x34  Code  Gb  ManageBusPulse.o [1]
BusPulse_GeBusCanFailFlag
                        0x0801854b     0x8  Code  Gb  ManageBusPulse.o [1]
BusPulse_GetBusFail     0x08018491    0x28  Code  Gb  ManageBusPulse.o [1]
BusPulse_GetBusFailFlag
                        0x080185ed     0x8  Code  Gb  ManageBusPulse.o [1]
BusPulse_OnCheckFunction
                        0x0801856d    0x80  Code  Gb  ManageBusPulse.o [1]
BusPulse_ReadBusTimeOut
                        0x08018427    0x6a  Code  Gb  ManageBusPulse.o [1]
BusPulse_SetBusFail     0x080184b9    0x68  Code  Gb  ManageBusPulse.o [1]
BusPulse_UpdataBusFailTime
                        0x0801853b    0x10  Code  Gb  ManageBusPulse.o [1]
BusPulse_UpdateEnterSleepModleTime
                        0x08018553    0x1a  Code  Gb  ManageBusPulse.o [1]
BusPulse_awakenTask     0x08018377    0x1c  Code  Gb  ManageBusPulse.o [1]
BusPulse_getCycleOutInfo
                        0x08018363     0xe  Code  Gb  ManageBusPulse.o [1]
BusPulse_getPulseInfo   0x08018371     0x6  Code  Gb  ManageBusPulse.o [1]
BusPulse_refreshVar     0x08018393    0x60  Code  Gb  ManageBusPulse.o [1]
BusPulse_setVar         0x0801823d   0x126  Code  Gb  ManageBusPulse.o [1]
CAN1_RX0_IRQHandler     0x08022819          Code  Wk  startup_stm32f2xx.o [1]
CAN1_RX1_IRQHandler     0x0802281d          Code  Wk  startup_stm32f2xx.o [1]
CAN1_SCE_IRQHandler     0x08022821          Code  Wk  startup_stm32f2xx.o [1]
CAN1_TX_IRQHandler      0x08022815          Code  Wk  startup_stm32f2xx.o [1]
CAN2_RX0_IRQHandler     0x0801d3ef    0x36  Code  Gb  DriveCan2.o [1]
CAN2_RX1_IRQHandler     0x0801d425    0x1a  Code  Gb  DriveCan2.o [1]
CAN2_SCE_IRQHandler     0x0801d43f     0xe  Code  Gb  DriveCan2.o [1]
CAN2_TX_IRQHandler      0x0801d3d5    0x1a  Code  Gb  DriveCan2.o [1]
CAN_FilterInit          0x0801dc31   0x112  Code  Gb  stm32f2xx_can.o [1]
CAN_ITConfig            0x0801dfc7    0x18  Code  Gb  stm32f2xx_can.o [1]
CAN_Init                0x0801db21   0x110  Code  Gb  stm32f2xx_can.o [1]
CAN_MessagePending      0x0801df77    0x26  Code  Gb  stm32f2xx_can.o [1]
CAN_Receive             0x0801de8f    0xe8  Code  Gb  stm32f2xx_can.o [1]
CAN_StructInit          0x0801dd43    0x2e  Code  Gb  stm32f2xx_can.o [1]
CAN_Transmit            0x0801dd71   0x11e  Code  Gb  stm32f2xx_can.o [1]
CAN_WakeUp              0x0801df9d    0x2a  Code  Gb  stm32f2xx_can.o [1]
CRC32_calculate         0x08013073    0x2e  Code  Gb  DriveCrc.o [1]
CRC_ResetDR             0x0801ca31     0x8  Code  Gb  stm32f2xx_crc.o [1]
CRYP_IRQHandler         0x08022905          Code  Wk  startup_stm32f2xx.o [1]
CSTACK$$Base            0x2000d4c0           --   Gb  - Linker created -
CSTACK$$Limit           0x2000d8c0           --   Gb  - Linker created -
CalCheckSum             0x080117e5    0x2a  Code  Gb  EeyeLib.o [1]
CalMod256Sum            0x080118d1    0x18  Code  Gb  EeyeLib.o [1]
Can120R_output          0x0802275c     0x4  Data  Gb  ManageCanBus.o [1]
Can2_OpenInterrupt      0x0801d06d    0x10  Code  Gb  DriveCan2.o [1]
CanAnd485BeatOut        0x2000d4b7     0x1  Data  Gb  NewBusOut.o [1]
CanBaudRateTab          0x08021dc4    0x28  Data  Lc  DriveCan2.o [1]
CanBus_ISR_Rx           0x0801a1ed   0x2aa  Code  Gb  ManageCanBus.o [1]
CanBus_send2Bus         0x08019c25    0x82  Code  Gb  ManageCanBus.o [1]
CanParamter             0x08022304    0x14  Data  Gb  AdapterParameter.o [1]
CanSleepControl         0x08022758     0x4  Data  Gb  ManageCanBus.o [1]
Can_GetCanBaudrateFlag  0x0801a549     0x8  Code  Gb  ManageCanBus.o [1]
Can_Read120R            0x0801a4fd    0x46  Code  Gb  ManageCanBus.o [1]
Can_Set120R             0x0801a497    0x66  Code  Gb  ManageCanBus.o [1]
Can_getBaudrate         0x0801a089    0x5e  Code  Gb  ManageCanBus.o [1]
Can_getSoftFilterMax    0x0801a17d     0x8  Code  Gb  ManageCanBus.o [1]
Can_getSoftFilterMin    0x0801a175     0x8  Code  Gb  ManageCanBus.o [1]
Can_setBaudrate         0x08019f8d    0xe4  Code  Gb  ManageCanBus.o [1]
Can_setSoftFilterMax    0x0801a135    0x40  Code  Gb  ManageCanBus.o [1]
Can_setSoftFilterMin    0x0801a0f1    0x3c  Code  Gb  ManageCanBus.o [1]
CarParameter            0x08021e3c    0x24  Data  Gb  AdapterParameter.o [1]
CheckAPN                0x08007403    0x34  Code  Gb  GprsNetwork.o [1]
CheckAlarmTel           0x08012181    0xe4  Code  Gb  AdapterSms.o [1]
CheckEndAddr            0x2000d444     0x4  Data  Gb  ManageCanBus.o [1]
CheckLacCid             0x08007e61    0x4a  Code  Gb  GprsNetwork.o [1]
CheckModule             0x08022070    0x20  Data  Gb  GprsNetwork.o [1]
CheckNamePassword       0x08007437    0x4a  Code  Gb  GprsNetwork.o [1]
ClearReceBuffer         0x08007481    0x3c  Code  Gb  GprsNetwork.o [1]
Code2RamCopy            0x080116c1    0x38  Code  Gb  EeyeLib.o [1]
ConverseGmtime          0x08012e35    0x6e  Code  Gb  rtc.o [1]
ConverseGmtime2         0x08012ea3    0x74  Code  Gb  rtc.o [1]
ConverseGmtime3         0x08012f65    0x74  Code  Gb  rtc.o [1]
ConvertAsc2Hex          0x08011739    0x92  Code  Gb  EeyeLib.o [1]
ConvertDec2Hex          0x080117cb    0x1a  Code  Gb  EeyeLib.o [1]
ConvertHex2Asc          0x080116f9    0x3a  Code  Gb  EeyeLib.o [1]
Crc16_check             0x2000d48c     0x2  Data  Gb  ManageCanBus.o [1]
CreatServerAck          0x0800f181    0xee  Code  Gb  ManageProtocol.o [1]
CreateTask              0x08014a15    0xcc  Code  Gb  main.o [1]
DBGMCU_APB1PeriphConfig
                        0x0801ce01    0x20  Code  Gb  stm32f2xx_dbgmcu.o [1]
DCMI_IRQHandler         0x08022901          Code  Wk  startup_stm32f2xx.o [1]
DMA1_Stream0_IRQHandler
                        0x080227f5          Code  Wk  startup_stm32f2xx.o [1]
DMA1_Stream1_IRQHandler
                        0x080227f9          Code  Wk  startup_stm32f2xx.o [1]
DMA1_Stream2_IRQHandler
                        0x080227fd          Code  Wk  startup_stm32f2xx.o [1]
DMA1_Stream3_IRQHandler
                        0x08022801          Code  Wk  startup_stm32f2xx.o [1]
DMA1_Stream4_IRQHandler
                        0x08022805          Code  Wk  startup_stm32f2xx.o [1]
DMA1_Stream5_IRQHandler
                        0x08022809          Code  Wk  startup_stm32f2xx.o [1]
DMA1_Stream6_IRQHandler
                        0x0802280d          Code  Wk  startup_stm32f2xx.o [1]
DMA1_Stream7_IRQHandler
                        0x08022885          Code  Wk  startup_stm32f2xx.o [1]
DMA2_Stream0_IRQHandler
                        0x080228a9          Code  Wk  startup_stm32f2xx.o [1]
DMA2_Stream1_IRQHandler
                        0x080228ad          Code  Wk  startup_stm32f2xx.o [1]
DMA2_Stream2_IRQHandler
                        0x080228b1          Code  Wk  startup_stm32f2xx.o [1]
DMA2_Stream3_IRQHandler
                        0x080228b5          Code  Wk  startup_stm32f2xx.o [1]
DMA2_Stream4_IRQHandler
                        0x080228b9          Code  Wk  startup_stm32f2xx.o [1]
DMA2_Stream5_IRQHandler
                        0x080215db    0x4c  Code  Gb  stm32f2xx_it.o [1]
DMA2_Stream6_IRQHandler
                        0x080228dd          Code  Wk  startup_stm32f2xx.o [1]
DMA2_Stream7_IRQHandler
                        0x080228e1          Code  Wk  startup_stm32f2xx.o [1]
DMA_ClearFlag           0x080132c5    0x20  Code  Gb  stm32f2xx_dma.o [1]
DMA_Cmd                 0x08013279    0x1a  Code  Gb  stm32f2xx_dma.o [1]
DMA_Configuration       0x080140ed    0x76  Code  Gb  DriveUsart1.o [1]
DMA_DeInit              0x080130ed   0x136  Code  Gb  stm32f2xx_dma.o [1]
DMA_GetFlagStatus       0x08013293    0x32  Code  Gb  stm32f2xx_dma.o [1]
DMA_ITConfig            0x080132e5    0x42  Code  Gb  stm32f2xx_dma.o [1]
DMA_Init                0x08013223    0x56  Code  Gb  stm32f2xx_dma.o [1]
DT_TAB                  0x08021078    0xf4  Data  Gb  ManageDs18b20.o [1]
DeCode                  0x0801e11f   0x7ea  Code  Gb  encryption.o [4]
DebugMon_Handler        0x080227bd          Code  Wk  startup_stm32f2xx.o [1]
Decode                  0x0801f2df    0x32  Code  Lc  MD5_NEW.o [1]
DecodeTab1              0x08022688     0x8  Data  Gb  AdapterSms.o [1]
DefaultPacketUpdateIP   0x080226b0     0x8  Data  Gb  GprsNetwork.o [1]
DelSmsFromSim           0x0800593d    0x64  Code  Gb  GprsNetwork.o [1]
DeviceParameter         0x08021af8    0x3c  Data  Gb  AdapterParameter.o [1]
Door_input              0x0802277c     0x4  Data  Gb  ManagePortControl.o [1]
DownGprs                0x08021e84    0x24  Data  Gb  GprsNetwork.o [1]
DownGprsMqtt            0x08021b34    0x38  Data  Gb  GprsNetwork.o [1]
DriveAdc_StartAdc       0x080187d5    0x26  Code  Gb  DriveAdc.o [1]
DriveAdc_init           0x0801863d    0xf6  Code  Gb  DriveAdc.o [1]
DriveCan2_InitModule    0x0801d07d   0x1e2  Code  Gb  DriveCan2.o [1]
DriveCan2_SendCanExdFrame
                        0x0801d2e1    0x76  Code  Gb  DriveCan2.o [1]
DriveCan2_SendExdFrame  0x0801d357    0x7e  Code  Gb  DriveCan2.o [1]
DriveCan2_SendStdFrame  0x0801d277    0x6a  Code  Gb  DriveCan2.o [1]
DriveCan2_configureModule
                        0x0801d25f    0x18  Code  Gb  DriveCan2.o [1]
DriveCan2_init          0x0801cfd1    0x9c  Code  Gb  DriveCan2.o [1]
DriveCrc_CRC16          0x080130a5    0x48  Code  Gb  DriveCrc.o [1]
DriveCrc_init           0x08013061    0x12  Code  Gb  DriveCrc.o [1]
DriveSysTick_init       0x0801ce25    0x38  Code  Gb  DriveSysTick.o [1]
DriveUsart1_init        0x08013f7d    0xe6  Code  Gb  DriveUsart1.o [1]
DriveUsart2_init        0x0801ce79    0xba  Code  Gb  DriveUsart2.o [1]
DriveUsart6_SendBuff    0x08018c5b    0x48  Code  Gb  DriveUsart6.o [1]
DriveUsart6_init        0x08018b05    0xb8  Code  Gb  DriveUsart6.o [1]
E2promAck               0x080189c9    0x4c  Code  Gb  e2prom_93C86.o [1]
E2promEWDS              0x08018a87    0x16  Code  Gb  e2prom_93C86.o [1]
E2promEWEN              0x08018a71    0x16  Code  Gb  e2prom_93C86.o [1]
E2promSendByte          0x08018a15    0x4e  Code  Gb  e2prom_93C86.o [1]
E2promStart             0x0801897f    0x2a  Code  Gb  e2prom_93C86.o [1]
E2promStop              0x080189a9    0x20  Code  Gb  e2prom_93C86.o [1]
E2prom_BufferRead       0x08018881    0x9c  Code  Gb  e2prom_93C86.o [1]
E2prom_WriteByte        0x0801891d    0x62  Code  Gb  e2prom_93C86.o [1]
E2prom_init             0x08018811    0x70  Code  Gb  e2prom_93C86.o [1]
ERASE_BLOCK             0x2000d424     0x4  Data  Gb  ManageCanBus.o [1]
ETH_IRQHandler          0x080228bd          Code  Wk  startup_stm32f2xx.o [1]
ETH_WKUP_IRQHandler     0x080228c1          Code  Wk  startup_stm32f2xx.o [1]
EXTI0_IRQHandler        0x08015ad9    0x18  Code  Gb  ManagePortControl.o [1]
EXTI15_10_IRQHandler    0x0802166f     0x2  Code  Gb  stm32f2xx_it.o [1]
EXTI1_IRQHandler        0x080215d5     0x2  Code  Gb  stm32f2xx_it.o [1]
EXTI2_IRQHandler        0x080215d7     0x2  Code  Gb  stm32f2xx_it.o [1]
EXTI3_IRQHandler        0x080215d9     0x2  Code  Gb  stm32f2xx_it.o [1]
EXTI4_IRQHandler        0x08015ac1    0x18  Code  Gb  ManagePortControl.o [1]
EXTI9_5_IRQHandler      0x08015a91    0x30  Code  Gb  ManagePortControl.o [1]
EXTI_ClearITPendingBit  0x08017df1     0x6  Code  Gb  stm32f2xx_exti.o [1]
EXTI_Configuration      0x08012f39    0x2c  Code  Gb  rtc.o [1]
EXTI_GetITStatus        0x08017dcd    0x24  Code  Gb  stm32f2xx_exti.o [1]
EXTI_Init               0x08017d45    0x88  Code  Gb  stm32f2xx_exti.o [1]
EeyeLib_TwoSearch       0x0801183b    0x96  Code  Gb  EeyeLib.o [1]
Encode                  0x0801f31f    0x38  Code  Lc  MD5_NEW.o [1]
EraseAddr               0x2000d440     0x4  Data  Gb  ManageCanBus.o [1]
Event_addTask           0x0800cde9    0x28  Code  Gb  OS_EVENT.o [1]
Event_change            0x0800ce3b    0x32  Code  Gb  OS_EVENT.o [1]
Event_removeTask        0x0800ce11    0x2a  Code  Gb  OS_EVENT.o [1]
ExDevCmdAck             0x0801362f    0x88  Code  Gb  ManageExDev.o [1]
ExDev_sendData          0x080135e3    0x4c  Code  Gb  ManageExDev.o [1]
ExtiShakeFlag           0x2000d496     0x1  Data  Lc  DriverLis2dh.o [1]
F                       0x0801dff9     0xa  Code  Gb  encryption.o [4]
FF                      0x0801e027    0x3e  Code  Gb  encryption.o [4]
FLASH_EraseSector       0x0801428b    0xb0  Code  Gb  stm32f2xx_flash.o [1]
FLASH_GetStatus         0x08014449    0x3c  Code  Gb  stm32f2xx_flash.o [1]
FLASH_IRQHandler        0x080215d1     0x2  Code  Gb  stm32f2xx_it.o [1]
FLASH_Lock              0x08014279    0x12  Code  Gb  stm32f2xx_flash.o [1]
FLASH_OB_RDPConfig      0x08014431    0x18  Code  Gb  stm32f2xx_flash.o [1]
FLASH_PrefetchBufferCmd
                        0x0801422d    0x2c  Code  Gb  stm32f2xx_flash.o [1]
FLASH_ProgramByte       0x080143e3    0x4e  Code  Gb  stm32f2xx_flash.o [1]
FLASH_ProgramHalfWord   0x0801438f    0x54  Code  Gb  stm32f2xx_flash.o [1]
FLASH_ProgramWord       0x0801433b    0x54  Code  Gb  stm32f2xx_flash.o [1]
FLASH_SetLatency        0x08014225     0x8  Code  Gb  stm32f2xx_flash.o [1]
FLASH_Unlock            0x08014259    0x20  Code  Gb  stm32f2xx_flash.o [1]
FLASH_WaitForLastOperation
                        0x080144a1    0x28  Code  Gb  stm32f2xx_flash.o [1]
FSMC_IRQHandler         0x08021673     0x2  Code  Gb  stm32f2xx_it.o [1]
FailureNumberString     0x2000d2f4    0x10  Data  Gb  ManageKeyUnlock.o [1]
FrameEnd                0x2000d488     0x2  Data  Lc  ManageCanBus.o [1]
FrameHead               0x2000d486     0x2  Data  Lc  ManageCanBus.o [1]
FtpProgramData          0x080104e5    0x18  Code  Gb  ManageFlashProgram.o [1]
FunctionParameter       0x08022670     0x8  Data  Gb  AdapterParameter.o [1]
G                       0x0801e003     0x8  Code  Gb  encryption.o [4]
GG                      0x0801e0a3    0x3e  Code  Gb  encryption.o [4]
GPIO_Init               0x08017e0d    0xa6  Code  Gb  stm32f2xx_gpio.o [1]
GPIO_PinAFConfig        0x08017ee7    0x52  Code  Gb  stm32f2xx_gpio.o [1]
GPIO_ReadInputDataBit   0x08017eb3    0x16  Code  Gb  stm32f2xx_gpio.o [1]
GPIO_ReadOutputDataBit  0x08017ec9    0x16  Code  Gb  stm32f2xx_gpio.o [1]
GPIO_ResetBits          0x08017ee3     0x4  Code  Gb  stm32f2xx_gpio.o [1]
GPIO_SetBits            0x08017edf     0x4  Code  Gb  stm32f2xx_gpio.o [1]
GetCenterIp             0x08005c63   0x1bc  Code  Gb  GprsNetwork.o [1]
GetCrc32WithSeed        0x08010bed    0x20  Code  Gb  ManagePacketUpdate.o [1]
GetSector               0x08010629    0xa2  Code  Gb  ManageFlashProgram.o [1]
GetSmsTelNum            0x080120dd    0x58  Code  Gb  AdapterSms.o [1]
GotoGsmStart            0x08005e1f    0x32  Code  Gb  GprsNetwork.o [1]
GprsInnerBuff           0x2000c8a8    0x84  Data  Lc  GprsNetwork.o [1]
GprsNetWork_Get24HourNoLink
                        0x0800844b    0x22  Code  Gb  GprsNetwork.o [1]
GprsNetWork_Set24HourNoLink
                        0x080083ed    0x5e  Code  Gb  GprsNetwork.o [1]
GprsNetowork_GetGsmModeState
                        0x080075ad     0xe  Code  Gb  GprsNetwork.o [1]
GprsNetowork_GetLGprsLinkState
                        0x0800759f     0xe  Code  Gb  GprsNetwork.o [1]
GprsNetworkRemoteUpdate_LoginHttpServer
                        0x080086f1   0x4a0  Code  Gb  GprsNetwork.o [1]
GprsNetwork_CheckDOMAIN
                        0x080084fd    0x36  Code  Gb  GprsNetwork.o [1]
GprsNetwork_CheckImsi   0x08007741    0xd4  Code  Gb  GprsNetwork.o [1]
GprsNetwork_CheckIpDomainPort
                        0x08007aa9    0xaa  Code  Gb  GprsNetwork.o [1]
GprsNetwork_CleanSimChange
                        0x08007935    0x2c  Code  Gb  GprsNetwork.o [1]
GprsNetwork_CleanSimRemoveFlag
                        0x0800787d    0x3a  Code  Gb  GprsNetwork.o [1]
GprsNetwork_ClearnSmsSendCount
                        0x08007eab     0xa  Code  Gb  GprsNetwork.o [1]
GprsNetwork_General_Pack_Topic
                        0x08008bf5   0x178  Code  Gb  GprsNetwork.o [1]
GprsNetwork_GetCallNum  0x0800763d    0x1a  Code  Gb  GprsNetwork.o [1]
GprsNetwork_GetCellularId
                        0x0800771b    0x22  Code  Gb  GprsNetwork.o [1]
GprsNetwork_GetIp0000Mode
                        0x08007915    0x20  Code  Gb  GprsNetwork.o [1]
GprsNetwork_GetIp0001Mode
                        0x080078ed    0x24  Code  Gb  GprsNetwork.o [1]
GprsNetwork_GetIpDomainSwitch
                        0x080086d1     0xa  Code  Gb  GprsNetwork.o [1]
GprsNetwork_GetLinkTestInterval
                        0x080076eb    0x30  Code  Gb  GprsNetwork.o [1]
GprsNetwork_GetMainLink_CenterIpDomainPort
                        0x080085d9    0xee  Code  Gb  GprsNetwork.o [1]
GprsNetwork_GetMainLink_IpDomainPort
                        0x0800846d    0x1a  Code  Gb  GprsNetwork.o [1]
GprsNetwork_GetNeedLoginFlag
                        0x080075e3     0xe  Code  Gb  GprsNetwork.o [1]
GprsNetwork_GetNoReplyFlag
                        0x080047d9     0xc  Code  Gb  GprsNetwork.o [1]
GprsNetwork_GetSIMNum   0x08007697    0x1a  Code  Gb  GprsNetwork.o [1]
GprsNetwork_GetSimChangeFlag
                        0x08007e23    0x3e  Code  Gb  GprsNetwork.o [1]
GprsNetwork_GetSimCount
                        0x08007f55    0x14  Code  Gb  GprsNetwork.o [1]
GprsNetwork_GetSimRemoveFlag
                        0x080078b7    0x30  Code  Gb  GprsNetwork.o [1]
GprsNetwork_GetSimState
                        0x08007eb5    0x10  Code  Gb  GprsNetwork.o [1]
GprsNetwork_GetUpdate_Method
                        0x08008bc5     0xa  Code  Gb  GprsNetwork.o [1]
GprsNetwork_GsmExitSleep
                        0x08007f37     0xe  Code  Gb  GprsNetwork.o [1]
GprsNetwork_GsmSleep    0x08007ec9    0x6e  Code  Gb  GprsNetwork.o [1]
GprsNetwork_LoginRemoteUpdateServer
                        0x08008315    0x50  Code  Gb  GprsNetwork.o [1]
GprsNetwork_OverseaMode
                        0x080075c1     0x4  Code  Gb  GprsNetwork.o [1]
GprsNetwork_ReadApn     0x08007b53    0x9a  Code  Gb  GprsNetwork.o [1]
GprsNetwork_ReadIpPort  0x08007965    0x6e  Code  Gb  GprsNetwork.o [1]
GprsNetwork_ReadMainLink_IpDomainPort
                        0x08008499    0x60  Code  Gb  GprsNetwork.o [1]
GprsNetwork_ReadNamePwd
                        0x08007d09    0xc0  Code  Gb  GprsNetwork.o [1]
GprsNetwork_SetApn      0x08007bf5   0x10e  Code  Gb  GprsNetwork.o [1]
GprsNetwork_SetCallNum  0x080075fd    0x40  Code  Gb  GprsNetwork.o [1]
GprsNetwork_SetId       0x08007f79    0xda  Code  Gb  GprsNetwork.o [1]
GprsNetwork_SetIpDomainSwitch
                        0x080086c7     0xa  Code  Gb  GprsNetwork.o [1]
GprsNetwork_SetIpPort   0x080079d9    0xcc  Code  Gb  GprsNetwork.o [1]
GprsNetwork_SetLinkTestInterval
                        0x080076b1    0x3a  Code  Gb  GprsNetwork.o [1]
GprsNetwork_SetMainLink_IpDomainPort
                        0x08008533    0xa6  Code  Gb  GprsNetwork.o [1]
GprsNetwork_SetSIMNum   0x08007657    0x40  Code  Gb  GprsNetwork.o [1]
GprsNetwork_SetSendSmsNeedCleanM
                        0x08007f69     0x8  Code  Gb  GprsNetwork.o [1]
GprsNetwork_SetSimChangeFlag
                        0x08007dcd    0x56  Code  Gb  GprsNetwork.o [1]
GprsNetwork_SetSimCount
                        0x08007f45    0x10  Code  Gb  GprsNetwork.o [1]
GprsNetwork_SetSimRemoveFlag
                        0x08007815    0x68  Code  Gb  GprsNetwork.o [1]
GprsNetwork_SetUpdate_Method
                        0x08008bcf     0xa  Code  Gb  GprsNetwork.o [1]
GprsNetwork_ShowGsmLed  0x08008065    0xa2  Code  Gb  GprsNetwork.o [1]
GprsNetwork_downServer  0x080046ff    0x16  Code  Gb  GprsNetwork.o [1]
GprsNetwork_getApn      0x08004741    0x22  Code  Gb  GprsNetwork.o [1]
GprsNetwork_getConnectMode
                        0x08004733     0xe  Code  Gb  GprsNetwork.o [1]
GprsNetwork_getGprsState
                        0x0800471f    0x14  Code  Gb  GprsNetwork.o [1]
GprsNetwork_getGprsState_Mqtt
                        0x08008bd9    0x14  Code  Gb  GprsNetwork.o [1]
GprsNetwork_getIMSI     0x0800477b     0xe  Code  Gb  GprsNetwork.o [1]
GprsNetwork_getIp       0x08004763    0x12  Code  Gb  GprsNetwork.o [1]
GprsNetwork_getRemoteUpdateIp
                        0x080082cd    0x48  Code  Gb  GprsNetwork.o [1]
GprsNetwork_getSignStrength
                        0x08004775     0x6  Code  Gb  GprsNetwork.o [1]
GprsNetwork_haveLoginAck
                        0x08004673    0x8c  Code  Gb  GprsNetwork.o [1]
GprsNetwork_haveRemoteUpdateLoginAck
                        0x0800836d    0x7a  Code  Gb  GprsNetwork.o [1]
GprsNetwork_linkStart   0x08004789    0x14  Code  Gb  GprsNetwork.o [1]
GprsNetwork_powerOff    0x08004715     0xa  Code  Gb  GprsNetwork.o [1]
GprsNetwork_receFromServer
                        0x08004585    0xee  Code  Gb  GprsNetwork.o [1]
GprsNetwork_receFromServer_Mqtt
                        0x080094cd    0xd4  Code  Gb  GprsNetwork.o [1]
GprsNetwork_refreshVal  0x080047bd    0x1c  Code  Gb  GprsNetwork.o [1]
GprsNetwork_sendData2Server
                        0x080044fd    0x88  Code  Gb  GprsNetwork.o [1]
GprsNetwork_sendData2Server_Mqtt
                        0x080095b1    0x78  Code  Gb  GprsNetwork.o [1]
GprsNetwork_setNewMsgFlag
                        0x080075c5    0x1e  Code  Gb  GprsNetwork.o [1]
GprsNetwork_showLed     0x0800479d    0x20  Code  Gb  GprsNetwork.o [1]
GpsAntennaAlarm         0x0800c139    0xc6  Code  Gb  ModuleGps.o [1]
GpsLastPowSta           0x2000d4b5     0x1  Data  Lc  ModuleGps.o [1]
GpsParamter             0x080220d0    0x1c  Data  Gb  AdapterParameter.o [1]
GpsPowerOn              0x0800bc13    0x20  Code  Gb  ModuleGps.o [1]
Gps_getAntennaInfo      0x0800b9f3    0x10  Code  Gb  ModuleGps.o [1]
Gps_getAntennaOpen      0x0800ba13     0xe  Code  Gb  ModuleGps.o [1]
Gps_getAntennaShort     0x0800ba03    0x10  Code  Gb  ModuleGps.o [1]
Gps_getGpsInfo          0x0800b993    0x50  Code  Gb  ModuleGps.o [1]
Gps_getNoMsgFlag        0x0800ba21     0xc  Code  Gb  ModuleGps.o [1]
Gps_getSatellitesNum    0x0800ba2d     0x8  Code  Gb  ModuleGps.o [1]
Gps_getValidInfo        0x0800b9e3    0x10  Code  Gb  ModuleGps.o [1]
Gps_powerOff            0x0800ba35    0x20  Code  Gb  ModuleGps.o [1]
GsmOverTime             0x08005e51    0x20  Code  Gb  GprsNetwork.o [1]
GsmParamter             0x08021cd8    0x30  Data  Gb  AdapterParameter.o [1]
GsmPowerOff             0x08005a1b    0x22  Code  Gb  GprsNetwork.o [1]
GsmPowerOn              0x08005a0d     0xe  Code  Gb  GprsNetwork.o [1]
GsmResultCode           0x08005259   0x520  Code  Gb  GprsNetwork.o [1]
GsmSleep                0x08022744     0x4  Data  Gb  GprsNetwork.o [1]
H                       0x0801e00b     0x6  Code  Gb  encryption.o [4]
HASH_RNG_IRQHandler     0x08022909          Code  Wk  startup_stm32f2xx.o [1]
HC595_Latch             0x08022764     0x4  Data  Gb  ManageKeyUnlock.o [1]
HC595_SClck             0x0802276c     0x4  Data  Gb  ManageKeyUnlock.o [1]
HC595_SData             0x08022768     0x4  Data  Gb  ManageKeyUnlock.o [1]
HEAP$$Base              0x2000d8c0           --   Gb  - Linker created -
HEAP$$Limit             0x2000dac0           --   Gb  - Linker created -
HH                      0x0801e0e1    0x3e  Code  Gb  encryption.o [4]
HandleCcid              0x080073a3    0x28  Code  Gb  GprsNetwork.o [1]
HandleCclk              0x080070dd   0x166  Code  Gb  GprsNetwork.o [1]
HandleClosed            0x08006813    0x36  Code  Gb  GprsNetwork.o [1]
HandleCme               0x08006ec1   0x162  Code  Gb  GprsNetwork.o [1]
HandleCmgr              0x08006bdd   0x1f2  Code  Gb  GprsNetwork.o [1]
HandleCmgs              0x08006dd5    0x42  Code  Gb  GprsNetwork.o [1]
HandleCms               0x08006e6b    0x4a  Code  Gb  GprsNetwork.o [1]
HandleCmti              0x08006b59    0x60  Code  Gb  GprsNetwork.o [1]
HandleConnect           0x080070af    0x28  Code  Gb  GprsNetwork.o [1]
HandleConnectFail       0x08007295    0x2c  Code  Gb  GprsNetwork.o [1]
HandleCpin              0x080068a3   0x120  Code  Gb  GprsNetwork.o [1]
HandleCpms              0x08006ac7    0x8c  Code  Gb  GprsNetwork.o [1]
HandleCreg              0x080069c3    0xa2  Code  Gb  GprsNetwork.o [1]
HandleCsca              0x08006a6d    0x5a  Code  Gb  GprsNetwork.o [1]
HandleCsq               0x08006849    0x5a  Code  Gb  GprsNetwork.o [1]
HandleError             0x08007023    0x7a  Code  Gb  GprsNetwork.o [1]
HandleHttpGet           0x08008b91    0x34  Code  Gb  GprsNetwork.o [1]
HandleIMSI              0x08007333    0x70  Code  Gb  GprsNetwork.o [1]
HandleMqttConn          0x08009271    0x56  Code  Gb  GprsNetwork.o [1]
HandleMqttOpen          0x08009219    0x50  Code  Gb  GprsNetwork.o [1]
HandleMqttSend          0x08009631    0x42  Code  Gb  GprsNetwork.o [1]
HandleMqttSub           0x080092d1    0x70  Code  Gb  GprsNetwork.o [1]
HandleNop               0x080070a9     0x6  Code  Gb  GprsNetwork.o [1]
HandleOK                0x080067d9    0x3a  Code  Gb  GprsNetwork.o [1]
HandleQFTPCLOSE         0x08008247    0x1c  Code  Gb  GprsNetwork.o [1]
HandleQFTPConnect       0x080081a3    0xa4  Code  Gb  GprsNetwork.o [1]
HandleQFTPLEN           0x08008263    0x62  Code  Gb  GprsNetwork.o [1]
HandleQFTPOPEN          0x08008107    0x4a  Code  Gb  GprsNetwork.o [1]
HandleQFTPPATH          0x08008151    0x52  Code  Gb  GprsNetwork.o [1]
HandleQideact           0x080073db    0x28  Code  Gb  GprsNetwork.o [1]
HandleQntp              0x08007243    0x52  Code  Gb  GprsNetwork.o [1]
HandleResult            0x080208f0   0x39c  Data  Gb  GprsNetwork.o [1]
HandleRing              0x080073cb    0x10  Code  Gb  GprsNetwork.o [1]
HandleSend              0x08006e21    0x4a  Code  Gb  GprsNetwork.o [1]
HandleShutDown          0x080072c1    0x4a  Code  Gb  GprsNetwork.o [1]
HandleSmsSendOut        0x0800730b    0x28  Code  Gb  GprsNetwork.o [1]
HardFault_Handler       0x080227a9          Code  Wk  startup_stm32f2xx.o [1]
I2C1_ER_IRQHandler      0x08021631     0x2  Code  Gb  stm32f2xx_it.o [1]
I2C1_EV_IRQHandler      0x0802162f     0x2  Code  Gb  stm32f2xx_it.o [1]
I2C2_ER_IRQHandler      0x08021635     0x2  Code  Gb  stm32f2xx_it.o [1]
I2C2_EV_IRQHandler      0x08021633     0x2  Code  Gb  stm32f2xx_it.o [1]
I2C3_ER_IRQHandler      0x080228ed          Code  Wk  startup_stm32f2xx.o [1]
I2C3_EV_IRQHandler      0x080228e9          Code  Wk  startup_stm32f2xx.o [1]
I2C_SoftInit            0x0801611f    0x42  Code  Gb  DriverLis2dh.o [1]
I2C_Soft_ReadByte       0x0801644f    0x56  Code  Gb  DriverLis2dh.o [1]
I2C_Soft_WriteByte      0x08016403    0x4c  Code  Gb  DriverLis2dh.o [1]
IE                      0x0801e01f     0x8  Code  Gb  encryption.o [4]
IEB                     0x0801e065    0x3e  Code  Gb  encryption.o [4]
IIC_Ack                 0x08016271    0x58  Code  Gb  DriverLis2dh.o [1]
IIC_NAck                0x080162c9    0x58  Code  Gb  DriverLis2dh.o [1]
IIC_Read_Byte           0x0801639b    0x68  Code  Gb  DriverLis2dh.o [1]
IIC_Send_Byte           0x08016321    0x7a  Code  Gb  DriverLis2dh.o [1]
IIC_Start               0x08016161    0x58  Code  Gb  DriverLis2dh.o [1]
IIC_Stop                0x080161b9    0x58  Code  Gb  DriverLis2dh.o [1]
IIC_Wait_Ack            0x08016211    0x60  Code  Gb  DriverLis2dh.o [1]
IO_TYPE_DEF             0x08021fd0    0x20  Data  Gb  FunctionIo.o [1]
IWDG_Enable             0x08017d2f     0xa  Code  Gb  stm32f2xx_iwdg.o [1]
IWDG_ReloadCounter      0x08017d25     0xa  Code  Gb  stm32f2xx_iwdg.o [1]
IWDG_SetPrescaler       0x08017d15     0x8  Code  Gb  stm32f2xx_iwdg.o [1]
IWDG_SetReload          0x08017d1d     0x8  Code  Gb  stm32f2xx_iwdg.o [1]
IWDG_WriteAccessCmd     0x08017d0d     0x8  Code  Gb  stm32f2xx_iwdg.o [1]
IndexStruct             0x2000d094    0x34  Data  Gb  ManageRemoteUpdate.o [1]
InitDrive               0x08014b3b    0x3a  Code  Gb  main.o [1]
InitDs18b20Task         0x08014dc9     0x8  Code  Gb  ManageDs18b20.o [1]
InitGprs                0x080047e5   0x148  Code  Gb  GprsNetwork.o [1]
InitKeyUnlockTask       0x080124d5   0x1a8  Code  Gb  ManageKeyUnlock.o [1]
InitLedTube             0x08012bb1    0x16  Code  Gb  ManageKeyUnlock.o [1]
InitManageFlashTask     0x0800ffed    0x92  Code  Gb  ManageFlashProgram.o [1]
InitModule              0x0802174c    0x90  Data  Gb  GprsNetwork.o [1]
InitOsEvent             0x0800cdd1    0x18  Code  Gb  OS_EVENT.o [1]
InitOsSystem            0x08014b2f     0xc  Code  Gb  main.o [1]
InitOsTask              0x0800ae55    0x58  Code  Gb  OS_TASK.o [1]
InitRtc                 0x08012c31    0x5a  Code  Gb  rtc.o [1]
InitSim                 0x08021430    0xc0  Data  Gb  GprsNetwork.o [1]
InitStm32Reg            0x08014b91     0xc  Code  Gb  main.o [1]
InitSystem              0x080096f1   0x152  Code  Gb  InterfaceSystem.o [1]
InitSystemInterrupt     0x08014b75    0x1c  Code  Gb  main.o [1]
InitTask                0x08014ae1    0x4e  Code  Gb  main.o [1]
InitTaskAlarm           0x0800b099    0x1e  Code  Gb  ManageAlarm.o [1]
InitTaskBusPulse        0x08017fb1   0x11a  Code  Gb  ManageBusPulse.o [1]
InitTaskCan             0x080193f9   0x30e  Code  Gb  ManageCanBus.o [1]
InitTaskExDev           0x08013395    0x6a  Code  Gb  ManageExDev.o [1]
InitTaskGprs            0x08004185   0x1ee  Code  Gb  GprsNetwork.o [1]
InitTaskGps             0x0800b2e9   0x1d0  Code  Gb  ModuleGps.o [1]
InitTaskGpsMileMeter    0x0801ba01    0x3c  Code  Gb  MileMeter.o [1]
InitTaskInterfaceInCom  0x0801ca3d    0x7c  Code  Gb  InterfaceInCom.o [1]
InitTaskLockCar         0x0800ce71   0x13c  Code  Gb  ManageLockCar.o [1]
InitTaskNewBusOut       0x0801c2c9     0x8  Code  Gb  NewBusOut.o [1]
InitTaskPortControl     0x08014e21   0x1a0  Code  Gb  ManagePortControl.o [1]
InitTaskPosTrack        0x0800c38d    0xd0  Code  Gb  ManagePosTrack.o [1]
InitTaskProtocol        0x0800d605   0x122  Code  Gb  ManageProtocol.o [1]
InitTaskTime            0x0800a72d    0x1c  Code  Gb  ManageTime.o [1]
InitVoltSample          0x08016a71   0x10e  Code  Gb  ManageVoltSample.o [1]
InitWatchdog            0x08014181    0x2c  Code  Gb  ManageWatchdog.o [1]
InterfaceIap_GetRemoteUpdata
                        0x0801c29f    0x28  Code  Gb  InterfaceIap.o [1]
InterfaceIap_SetRemoteUpdata
                        0x0801c259    0x46  Code  Gb  InterfaceIap.o [1]
InterfaceIap_finishUp   0x0801c087   0x13c  Code  Gb  InterfaceIap.o [1]
InterfaceIap_readUpHead
                        0x0801c1c3    0x76  Code  Gb  InterfaceIap.o [1]
InterfaceIap_saveProgramData
                        0x0801bfc1    0xc6  Code  Gb  InterfaceIap.o [1]
InterfaceIap_writeUpHead
                        0x0801be21   0x1a0  Code  Gb  InterfaceIap.o [1]
InterfaceSyatem_Delay   0x0800a4ed    0x14  Code  Gb  InterfaceSystem.o [1]
InterfaceSyatem_EXTIExitSTOPMode
                        0x0800a4e1     0x8  Code  Gb  InterfaceSystem.o [1]
InterfaceSyatem_EXTIExitSTOPMode1
                        0x0800a501     0x8  Code  Gb  InterfaceSystem.o [1]
InterfaceSyatem_EnterStopMode
                        0x0800a09f   0x40a  Code  Gb  InterfaceSystem.o [1]
InterfaceSystem_Delay_ms
                        0x0800a627    0x18  Code  Gb  InterfaceSystem.o [1]
InterfaceSystem_Delay_us
                        0x0800a61d     0xa  Code  Gb  InterfaceSystem.o [1]
InterfaceSystem_DisableBackupPowerCharge
                        0x0800a66d     0xc  Code  Gb  InterfaceSystem.o [1]
InterfaceSystem_EnableBackupPowerCharge
                        0x0800a679     0xc  Code  Gb  InterfaceSystem.o [1]
InterfaceSystem_GetBackupPowerChargeFlag
                        0x0800a663     0xa  Code  Gb  InterfaceSystem.o [1]
InterfaceSystem_GetBakSleepState
                        0x0800a563    0x12  Code  Gb  InterfaceSystem.o [1]
InterfaceSystem_GetDeepSleepNeedNavi
                        0x0800a63f     0x6  Code  Gb  InterfaceSystem.o [1]
InterfaceSystem_GetDeepSleepUpTerm
                        0x0800a5df    0x38  Code  Gb  InterfaceSystem.o [1]
InterfaceSystem_GetDeviceUserId
                        0x08009fa7    0x12  Code  Gb  InterfaceSystem.o [1]
InterfaceSystem_GetPowerSave
                        0x08009f5d    0x28  Code  Gb  InterfaceSystem.o [1]
InterfaceSystem_OverTempJudge
                        0x08009fb9    0x64  Code  Gb  InterfaceSystem.o [1]
InterfaceSystem_RedefinPin
                        0x0800a50d    0x56  Code  Gb  InterfaceSystem.o [1]
InterfaceSystem_SetCANBUSReceiveFlag
                        0x0800a685     0xe  Code  Gb  InterfaceSystem.o [1]
InterfaceSystem_SetDeepSleepUpTerm
                        0x0800a58d    0x52  Code  Gb  InterfaceSystem.o [1]
InterfaceSystem_SetPowerSave
                        0x08009f17    0x46  Code  Gb  InterfaceSystem.o [1]
InterfaceSystem_UpdataDeepSleepLoginTime
                        0x0800a57d     0xa  Code  Gb  InterfaceSystem.o [1]
InterfaceSystem_setLockUnlockFlag
                        0x0800a693     0xe  Code  Gb  InterfaceSystem.o [1]
InternalVer             0x2000d4b8     0x1  Data  Gb  main.o [1]
InvertPduNumber         0x08012135    0x4c  Code  Gb  AdapterSms.o [1]
IoInit                  0x08015a11    0x66  Code  Gb  ManagePortControl.o [1]
IoParamter              0x080223b8    0x10  Data  Gb  AdapterParameter.o [1]
Io_change               0x0800ada5    0x64  Code  Gb  FunctionIo.o [1]
Io_init                 0x0800acb9    0xa2  Code  Gb  FunctionIo.o [1]
Io_read                 0x0800ae09    0x34  Code  Gb  FunctionIo.o [1]
Io_write                0x0800ad5b    0x4a  Code  Gb  FunctionIo.o [1]
IpDomain_Arrary         0x2000d128    0x28  Data  Lc  GprsNetwork.o [1]
IsNumber                0x08011997    0x12  Code  Gb  EeyeLib.o [1]
LeapYear                0x08012da7    0x3a  Code  Gb  rtc.o [1]
Lis2dh_ExtiInit         0x08016505    0x58  Code  Gb  DriverLis2dh.o [1]
Lis2dh_GetShakeStatus   0x080166bd     0x6  Code  Gb  DriverLis2dh.o [1]
Lis2dh_SetExtiShake     0x080165d1     0x8  Code  Gb  DriverLis2dh.o [1]
Lis2dh_ShakeSecProc     0x080165d9    0xaa  Code  Gb  DriverLis2dh.o [1]
Lis2dh_ShakeSleepProc   0x08016683    0x3a  Code  Gb  DriverLis2dh.o [1]
Lis2dh_Slope_Init       0x0801655d    0x74  Code  Gb  DriverLis2dh.o [1]
LockCarParamter         0x08021d08    0x30  Data  Gb  AdapterParameter.o [1]
LockCar_GetAutoLockCarFlag
                        0x0800d4ab     0xe  Code  Gb  ManageLockCar.o [1]
LockCar_GetNoLinkLockTime
                        0x0800d583    0x60  Code  Gb  ManageLockCar.o [1]
LockCar_ReadLockCarTime
                        0x0800d4c7    0x80  Code  Gb  ManageLockCar.o [1]
LockCar_ReadNoLinkLockTime
                        0x0800d5e3     0x8  Code  Gb  ManageLockCar.o [1]
LockCar_SetAutoLockCarFlag
                        0x0800d4b9     0xe  Code  Gb  ManageLockCar.o [1]
LockCar_cleanHistoryFlag
                        0x0800d243     0xe  Code  Gb  ManageLockCar.o [1]
LockCar_clearErrTime    0x0800d209    0x3a  Code  Gb  ManageLockCar.o [1]
LockCar_getConfigTime   0x0800d323     0x6  Code  Gb  ManageLockCar.o [1]
LockCar_getHistoryInfo  0x0800d34b    0x18  Code  Gb  ManageLockCar.o [1]
LockCar_refreshVal      0x0800d363     0xc  Code  Gb  ManageLockCar.o [1]
LockCar_setBackupData   0x0800d329    0x22  Code  Gb  ManageLockCar.o [1]
LockCar_setConfigTime   0x0800d251    0xd2  Code  Gb  ManageLockCar.o [1]
LoginServer             0x080058e9    0x54  Code  Gb  GprsNetwork.o [1]
LoginToPrivateServerFlag
                        0x2000d4b1     0x1  Data  Lc  ManageProtocol.o [1]
LowVolOutput            0x08022780     0x4  Data  Gb  ManagePortControl.o [1]
MD5Init                 0x0801ea43    0x20  Code  Gb  MD5_NEW.o [1]
MD5Transform            0x0801eae7   0x7f8  Code  Lc  MD5_NEW.o [1]
MD5Update               0x0801ea63    0x70  Code  Gb  MD5_NEW.o [1]
MD5_memcpy              0x0801ead3    0x14  Code  Lc  MD5_NEW.o [1]
MD5_memset              0x0801f311     0xe  Code  Lc  MD5_NEW.o [1]
MOD_CalcCRC             0x08010521    0x24  Code  Gb  ManageFlashProgram.o [1]
MOD_InitCRC             0x080104fd    0x16  Code  Gb  ManageFlashProgram.o [1]
MOD_StopCRC             0x08010513     0xe  Code  Gb  ManageFlashProgram.o [1]
ManageBlindArea_CreateTheBlindAreaData
                        0x08015f45    0xa6  Code  Gb  ManageBlindArea.o [1]
ManageBlindArea_GetBlindUpFlag
                        0x0801608d    0x2a  Code  Gb  ManageBlindArea.o [1]
ManageBlindArea_SaveBlindAreaData
                        0x08015bc1   0x1cc  Code  Gb  ManageBlindArea.o [1]
ManageBlindArea_SaveBlindParamtoFlash
                        0x08015feb    0x48  Code  Gb  ManageBlindArea.o [1]
ManageBlindArea_SetBlindUpFlag
                        0x08016033    0x5a  Code  Gb  ManageBlindArea.o [1]
ManageBlindArea_UpdateBlindAreaData
                        0x08015e4d    0xf8  Code  Gb  ManageBlindArea.o [1]
ManageBlinkArea_HeaderForward
                        0x08015b75    0x26  Code  Gb  ManageBlindArea.o [1]
ManageBlinkArea_ReadDataFromFlash
                        0x08015def    0x36  Code  Gb  ManageBlindArea.o [1]
ManageBlinkArea_SectorErase
                        0x08015d8d    0x2c  Code  Gb  ManageBlindArea.o [1]
ManageBlinkArea_TailerForward
                        0x08015b9b    0x26  Code  Gb  ManageBlindArea.o [1]
ManageBlinkArea_WriteDataToFlash
                        0x08015db9    0x36  Code  Gb  ManageBlindArea.o [1]
ManageCanBus_Add2SendEx
                        0x08019d6b    0xec  Code  Gb  ManageCanBus.o [1]
ManageCanBus_Add2SendEx2
                        0x08019cbb    0xb0  Code  Gb  ManageCanBus.o [1]
ManageCanBus_Crc16CCITT
                        0x0801ab8f    0x46  Code  Gb  ManageCanBus.o [1]
ManageCanBus_ExSendData
                        0x08019f2d    0x60  Code  Gb  ManageCanBus.o [1]
ManageCanBus_GetCANBusUpCycle
                        0x0801a8f7    0x14  Code  Gb  ManageCanBus.o [1]
ManageCanBus_GetDeviceType
                        0x0801ab5d    0x32  Code  Gb  ManageCanBus.o [1]
ManageCanBus_GetDwSecretSwitch
                        0x0801a8c9     0x8  Code  Gb  ManageCanBus.o [1]
ManageCanBus_GetUdsUpdateState
                        0x0801b789     0x6  Code  Gb  ManageCanBus.o [1]
ManageCanBus_HeaderForward
                        0x0801a551    0x22  Code  Gb  ManageCanBus.o [1]
ManageCanBus_PassWordProc
                        0x0801a691    0xf0  Code  Gb  ManageCanBus.o [1]
ManageCanBus_ReadDwSecretKey
                        0x0801a7e5    0x3e  Code  Gb  ManageCanBus.o [1]
ManageCanBus_ReadDwSecretSwitch
                        0x0801a8a5    0x24  Code  Gb  ManageCanBus.o [1]
ManageCanBus_SendQueryData
                        0x0801a955   0x1a4  Code  Gb  ManageCanBus.o [1]
ManageCanBus_ServerGetDwSecretKey
                        0x0801a823    0x3e  Code  Gb  ManageCanBus.o [1]
ManageCanBus_ServerSendProc
                        0x0801a635    0x54  Code  Gb  ManageCanBus.o [1]
ManageCanBus_ServerSetData
                        0x0801a5b1    0x7a  Code  Gb  ManageCanBus.o [1]
ManageCanBus_SetAccSwitchStatus
                        0x0801aaf9    0x12  Code  Gb  ManageCanBus.o [1]
ManageCanBus_SetCANBUSRecieveFlag
                        0x0801a92f    0x16  Code  Gb  ManageCanBus.o [1]
ManageCanBus_SetCANBusUpCycle
                        0x0801a8dd    0x1a  Code  Gb  ManageCanBus.o [1]
ManageCanBus_SetDeviceType
                        0x0801ab0b    0x52  Code  Gb  ManageCanBus.o [1]
ManageCanBus_SetDwSecretKey
                        0x0801a781    0x64  Code  Gb  ManageCanBus.o [1]
ManageCanBus_SetDwSecretSwitch
                        0x0801a861    0x44  Code  Gb  ManageCanBus.o [1]
ManageCanBus_SetUdsUpdateState
                        0x0801b783     0x6  Code  Gb  ManageCanBus.o [1]
ManageCanBus_TailerForward
                        0x0801a579    0x38  Code  Gb  ManageCanBus.o [1]
ManageCanBus_UdsTimeOut
                        0x0801b795    0x22  Code  Gb  ManageCanBus.o [1]
ManageCanBus_UdsUpdateProc
                        0x0801b889    0xfe  Code  Gb  ManageCanBus.o [1]
ManageCanBus_UpdateCANBusUpCycle
                        0x0801a90b    0x24  Code  Gb  ManageCanBus.o [1]
ManageCanBus_key        0x0801abd5   0x108  Code  Gb  ManageCanBus.o [1]
ManageExDev_CreatAckPack
                        0x08013e3d    0xfe  Code  Gb  ManageExDev.o [1]
ManageExDev_GetCutBakPowerFlag
                        0x08013c93     0x8  Code  Gb  ManageExDev.o [1]
ManageExDev_GetTerminalProperty
                        0x08013dc5    0x6a  Code  Gb  ManageExDev.o [1]
ManageExDev_IpPortJoinerTrans
                        0x08013d65    0x60  Code  Gb  ManageExDev.o [1]
ManageExDev_RecoverInitValue
                        0x08013ca5    0xc0  Code  Gb  ManageExDev.o [1]
ManageExDev_SetCutBakPowerFlag
                        0x08013c9b     0xa  Code  Gb  ManageExDev.o [1]
ManageFlashProgramGetLastRecvData
                        0x080104bb    0x1a  Code  Gb  ManageFlashProgram.o [1]
ManageFlashProgramProgramOnePage
                        0x0801032d    0x20  Code  Gb  ManageFlashProgram.o [1]
ManageFlashProgramProgramOnePage_HTTP
                        0x0801034d    0x42  Code  Gb  ManageFlashProgram.o [1]
ManageFlashProgramSetPageCnt
                        0x080105d3     0x6  Code  Gb  ManageFlashProgram.o [1]
ManageFlashProgramSetRecFlag
                        0x080104dd     0x8  Code  Gb  ManageFlashProgram.o [1]
ManageFlashProgramSetRecStart
                        0x080104d5     0x8  Code  Gb  ManageFlashProgram.o [1]
ManageFlashProgram_CheckTheCRC
                        0x0801038f   0x122  Code  Gb  ManageFlashProgram.o [1]
ManageFlashProgram_GetUdsDataLen
                        0x0801058f    0x3c  Code  Gb  ManageFlashProgram.o [1]
ManageFlashProgram_GetUpdateFlag
                        0x080106d1     0x6  Code  Gb  ManageFlashProgram.o [1]
ManageFlashProgram_ReadDataFromFlash
                        0x08010741    0x3a  Code  Gb  ManageFlashProgram.o [1]
ManageFlashProgram_SectorErase
                        0x080106d7    0x30  Code  Gb  ManageFlashProgram.o [1]
ManageFlashProgram_SetFtpDateReceOverFlag
                        0x080105cb     0x8  Code  Gb  ManageFlashProgram.o [1]
ManageFlashProgram_SetRecDataLen
                        0x08010545     0x6  Code  Gb  ManageFlashProgram.o [1]
ManageFlashProgram_SetUdsDataLen
                        0x0801054b    0x44  Code  Gb  ManageFlashProgram.o [1]
ManageFlashProgram_SetUpdateFlag
                        0x080106cb     0x6  Code  Gb  ManageFlashProgram.o [1]
ManageFlashProgram_WriteDataToFlash
                        0x08010707    0x3a  Code  Gb  ManageFlashProgram.o [1]
ManageFlashProgram_WriteFlash
                        0x0801060d    0x1c  Code  Gb  ManageFlashProgram.o [1]
ManageFlashProgram_WriteOnePacketToFlash
                        0x080105d9    0x34  Code  Gb  ManageFlashProgram.o [1]
ManageKeyUnlock_AddFailure
                        0x0801299d    0x16  Code  Gb  ManageKeyUnlock.o [1]
ManageKeyUnlock_AlarmLEDDisplay
                        0x08012a39   0x178  Code  Gb  ManageKeyUnlock.o [1]
ManageKeyUnlock_DelFailure
                        0x080129b3    0x10  Code  Gb  ManageKeyUnlock.o [1]
ManageKeyUnlock_LEDDisplay
                        0x08012953    0x4a  Code  Gb  ManageKeyUnlock.o [1]
ManageKeyUnlock_LedDisplayData
                        0x0801272b   0x228  Code  Gb  ManageKeyUnlock.o [1]
ManageKeyUnlock_SeachFailureCodeToDisp
                        0x080129c3    0x68  Code  Gb  ManageKeyUnlock.o [1]
ManageKeyUnlock_SetSimErrFlag
                        0x08012a2b     0xe  Code  Gb  ManageKeyUnlock.o [1]
ManageLockCar_ReadHistoryLockAndLockFlag
                        0x0800d453    0x58  Code  Gb  ManageLockCar.o [1]
ManageLockCar_SetHistoryLockFlag
                        0x0800d3c5    0x8e  Code  Gb  ManageLockCar.o [1]
ManagePacketUpdate_Init
                        0x080107f5    0x60  Code  Gb  ManagePacketUpdate.o [1]
ManagePacketUpdate_ReadUpdateHead
                        0x08010855    0x4c  Code  Gb  ManagePacketUpdate.o [1]
ManagePacketUpdate_getPacketUpdateOverFlag
                        0x08010c0d     0xc  Code  Gb  ManagePacketUpdate.o [1]
ManagePacketUpdate_setPacketUpdateOverFlag
                        0x08010c19    0x1e  Code  Gb  ManagePacketUpdate.o [1]
ManagePacket_CheckPacketUpdata
                        0x08010b9d    0x50  Code  Gb  ManagePacketUpdate.o [1]
ManagePacket_CheckTheCRC
                        0x08010c57    0xf4  Code  Gb  ManagePacketUpdate.o [1]
ManagePacket_ClearPrePackNum
                        0x08010d6b     0xa  Code  Gb  ManagePacketUpdate.o [1]
ManagePacket_GetCount   0x08010d5f     0x6  Code  Gb  ManagePacketUpdate.o [1]
ManagePacket_IncreaseCount
                        0x08010d4b    0x14  Code  Gb  ManagePacketUpdate.o [1]
ManagePacket_PacketUpdateStep
                        0x08010b5d    0x3a  Code  Gb  ManagePacketUpdate.o [1]
ManagePacket_QueryParam
                        0x08010a0f    0x32  Code  Gb  ManagePacketUpdate.o [1]
ManagePacket_QuerySoftwareRev
                        0x08010a41    0x5a  Code  Gb  ManagePacketUpdate.o [1]
ManagePacket_ReadUpdateData
                        0x080108a1   0x16e  Code  Gb  ManagePacketUpdate.o [1]
ManagePacket_SetCount   0x08010d65     0x6  Code  Gb  ManagePacketUpdate.o [1]
ManagePacket_SetStepParam
                        0x08010b97     0x6  Code  Gb  ManagePacketUpdate.o [1]
ManagePacket_getRecDataFlag
                        0x08010c49     0xe  Code  Gb  ManagePacketUpdate.o [1]
ManagePacket_setRecDataFlag
                        0x08010c37    0x12  Code  Gb  ManagePacketUpdate.o [1]
ManageProtocol_CheckID  0x0800f28d   0x184  Code  Gb  ManageProtocol.o [1]
ManageProtocol_CleanUpSpecialAlarmState
                        0x0800f655     0xa  Code  Gb  ManageProtocol.o [1]
ManageProtocol_GetDeviceNum
                        0x0800f475    0x1a  Code  Gb  ManageProtocol.o [1]
ManageProtocol_GetProductId_Mqtt
                        0x0800ff4d     0xc  Code  Gb  ManageProtocol.o [1]
ManageProtocol_GetSubParam
                        0x0800f4d9    0xec  Code  Gb  ManageProtocol.o [1]
ManageProtocol_GetTerminalId
                        0x0800f70d    0x1a  Code  Gb  ManageProtocol.o [1]
ManageProtocol_GetTerminalId_Mqtt
                        0x0800ff37    0x16  Code  Gb  ManageProtocol.o [1]
ManageProtocol_GetUpSpecialAlarmState
                        0x0800f64d     0x8  Code  Gb  ManageProtocol.o [1]
ManageProtocol_HandleCleanFlag
                        0x0800f48f    0x4a  Code  Gb  ManageProtocol.o [1]
ManageProtocol_SetDeviceNum
                        0x0800f435    0x40  Code  Gb  ManageProtocol.o [1]
ManageProtocol_StartUpSpecialAlarm
                        0x0800f65f    0x26  Code  Gb  ManageProtocol.o [1]
ManageRemoteUpdate_GetUpdateFlag
                        0x0801158b     0xe  Code  Gb  ManageRemoteUpdate.o [1]
ManageRemoteUpdate_HexToAscii
                        0x080114fb    0x90  Code  Gb  ManageRemoteUpdate.o [1]
ManageRemoteUpdate_Init
                        0x08010da5   0x122  Code  Gb  ManageRemoteUpdate.o [1]
ManageRemoteUpdate_LoginFtpServer
                        0x08010f39   0x5c2  Code  Gb  ManageRemoteUpdate.o [1]
ManageRemoteUpdate_SetupFtpServerParam
                        0x08010ec7    0x72  Code  Gb  ManageRemoteUpdate.o [1]
ManageTime_ISR_SysTick  0x0800a8ab    0x22  Code  Gb  ManageTime.o [1]
ManageVolSample_SetBakVolSamplingEnable
                        0x08017681    0x12  Code  Gb  ManageVoltSample.o [1]
ManageVoltSample_AllowChargeJudge
                        0x080175b9    0xba  Code  Gb  ManageVoltSample.o [1]
ManageVoltSample_BakPowerAlarmJudge
                        0x08017113   0x30a  Code  Gb  ManageVoltSample.o [1]
ManageVoltSample_EngineStartJudge
                        0x0801743d   0x110  Code  Gb  ManageVoltSample.o [1]
ManageVoltSample_FillArrary
                        0x08016d45    0x20  Code  Gb  ManageVoltSample.o [1]
ManageVoltSample_GetAllowChargeFlag
                        0x080175b1     0x8  Code  Gb  ManageVoltSample.o [1]
ManageVoltSample_GetBakPowerLow
                        0x0801742d     0x8  Code  Gb  ManageVoltSample.o [1]
ManageVoltSample_GetBakPowerOff
                        0x08017435     0x8  Code  Gb  ManageVoltSample.o [1]
ManageVoltSample_GetBakVol
                        0x080175ab     0x6  Code  Gb  ManageVoltSample.o [1]
ManageVoltSample_GetMainPowerLow
                        0x0801741d     0x8  Code  Gb  ManageVoltSample.o [1]
ManageVoltSample_GetMainPowerOff
                        0x08017425     0x8  Code  Gb  ManageVoltSample.o [1]
ManageVoltSample_GetMainVol
                        0x080175a5     0x6  Code  Gb  ManageVoltSample.o [1]
ManageVoltSample_GetProtectVol
                        0x08016dd5    0x12  Code  Gb  ManageVoltSample.o [1]
ManageVoltSample_HandleProtectVol
                        0x08016de7     0xc  Code  Gb  ManageVoltSample.o [1]
ManageVoltSample_InitOpenBakPower
                        0x08017673     0xe  Code  Gb  ManageVoltSample.o [1]
ManageVoltSample_InitSysVolt
                        0x0801754d     0x2  Code  Gb  ManageVoltSample.o [1]
ManageVoltSample_MainPowerAlarmJudge
                        0x08016e41   0x2d2  Code  Gb  ManageVoltSample.o [1]
ManageVoltSample_OpenBakPower
                        0x08016e33     0xe  Code  Gb  ManageVoltSample.o [1]
ManageVoltSample_ReadProtectVol
                        0x08016df3    0x32  Code  Gb  ManageVoltSample.o [1]
ManageVoltSample_SetProtectVol
                        0x08016d65    0x70  Code  Gb  ManageVoltSample.o [1]
ManageVoltSample_SetSysVolt
                        0x0801754f    0x56  Code  Gb  ManageVoltSample.o [1]
ManageVoltSample_ShutBakPower
                        0x08016e25     0xe  Code  Gb  ManageVoltSample.o [1]
ManageWorkStat_IsLeapYear
                        0x08020db3    0x40  Code  Gb  ManageWorkStat.o [1]
ManageWorkStat_TimeExchangtoBeijingTime
                        0x08020cf7    0xbc  Code  Gb  ManageWorkStat.o [1]
MemManage_Handler       0x080227ad          Code  Wk  startup_stm32f2xx.o [1]
MileMeter_CalDistance   0x0801bbe1   0x126  Code  Gb  MileMeter.o [1]
MileMeter_DecimalDegree
                        0x0801badb    0xc4  Code  Gb  MileMeter.o [1]
MileMeter_GetAccOnMileage
                        0x0801bda7    0x16  Code  Gb  MileMeter.o [1]
MileMeter_GetMileage    0x0801bd95    0x12  Code  Gb  MileMeter.o [1]
MileMeter_GetOriginMileage
                        0x0801be01    0x1e  Code  Gb  MileMeter.o [1]
MileMeter_InitialLonLat
                        0x0801bb9f    0x42  Code  Gb  MileMeter.o [1]
MileMeter_SaveMileage   0x0801bd59    0x3c  Code  Gb  MileMeter.o [1]
MileMeter_SetMileage    0x0801bd07    0x52  Code  Gb  MileMeter.o [1]
MileMeter_UpdataAccOnMomentMile
                        0x0801bdbd    0x12  Code  Gb  MileMeter.o [1]
MileObject              0x2000d3b4     0xc  Data  Lc  MileMeter.o [1]
MileSum                 0x2000d3f8     0x8  Data  Lc  MileMeter.o [1]
ModLib_AtAddrLen        0x080118e9    0x30  Code  Gb  EeyeLib.o [1]
ModuleGps_ClearnLowPowerAlreadyNavi
                        0x0800c2d5    0x10  Code  Gb  ModuleGps.o [1]
ModuleGps_ClearnLowPowerAlreadyUpFlag
                        0x0800c2b7     0x8  Code  Gb  ModuleGps.o [1]
ModuleGps_GetAllowJudgeGpsAntennaFail
                        0x0800c347     0x6  Code  Gb  ModuleGps.o [1]
ModuleGps_GetGpsFailDays
                        0x0800c259    0x14  Code  Gb  ModuleGps.o [1]
ModuleGps_GetGpsInfoYear
                        0x0800c24d     0x6  Code  Gb  ModuleGps.o [1]
ModuleGps_GetGpsSpeed   0x0800c253     0x6  Code  Gb  ModuleGps.o [1]
ModuleGps_GetLowPowerAlreadyNavi
                        0x0800c2c7     0xe  Code  Gb  ModuleGps.o [1]
ModuleGps_GetLowPowerAlreadyUpFlag
                        0x0800c2b1     0x6  Code  Gb  ModuleGps.o [1]
ModuleGps_GetLowPowerUpDataState
                        0x0800c2a1     0x6  Code  Gb  ModuleGps.o [1]
ModuleGps_GpsSetCmd     0x0800b925    0x6e  Code  Gb  ModuleGps.o [1]
ModuleGps_SetGpsFailDays
                        0x0800c26d    0x34  Code  Gb  ModuleGps.o [1]
ModuleGps_SetLowPowerAlreadyUpFlag
                        0x0800c2bf     0x8  Code  Gb  ModuleGps.o [1]
ModuleGps_SetLowPowerUpSuccessFlag
                        0x0800c2e5     0x8  Code  Gb  ModuleGps.o [1]
ModuleGps_ShowRedLed    0x0800c2ed    0x50  Code  Gb  ModuleGps.o [1]
ModuleGps_UpdataGpsAntFailTime
                        0x0800c33d     0xa  Code  Gb  ModuleGps.o [1]
Mqtt_SetupIp            0x080091e5    0x2e  Code  Gb  GprsNetwork.o [1]
NMI_Handler             0x080227a5          Code  Wk  startup_stm32f2xx.o [1]
NVIC_Configuration      0x08014c5f    0x18  Code  Gb  main.o [1]
NVIC_Init               0x0801c96b    0x68  Code  Gb  misc.o [1]
NVIC_PriorityGroupConfig
                        0x0801c961     0xa  Code  Gb  misc.o [1]
NVIC_SetVectorTable     0x0801c9d3     0xc  Code  Gb  misc.o [1]
NewBusOut_GetBeatOutFlag
                        0x0801c3ff     0x6  Code  Gb  NewBusOut.o [1]
NewBusOut_SetBeatOutFlag
                        0x0801c2db    0xac  Code  Gb  NewBusOut.o [1]
NewBusOut_UpdateBeatOutFlag
                        0x0801c387    0x78  Code  Gb  NewBusOut.o [1]
OS_CreateTask           0x0800aead    0x5e  Code  Gb  OS_TASK.o [1]
OS_ISR_SysTick          0x0800aff5    0x72  Code  Gb  OS_TASK.o [1]
OS_SchedulerTask        0x0800af0b    0xc0  Code  Gb  OS_TASK.o [1]
OS_awakenTask           0x0800afdd    0x18  Code  Gb  OS_TASK.o [1]
OS_checkTaskId          0x0800afcb     0xc  Code  Gb  OS_TASK.o [1]
OS_getRunTaskId         0x0800afd7     0x6  Code  Gb  OS_TASK.o [1]
OTG_FS_IRQHandler       0x080228d5          Code  Wk  startup_stm32f2xx.o [1]
OTG_FS_WKUP_IRQHandler  0x08022871          Code  Wk  startup_stm32f2xx.o [1]
OTG_HS_EP1_IN_IRQHandler
                        0x080228f5          Code  Wk  startup_stm32f2xx.o [1]
OTG_HS_EP1_OUT_IRQHandler
                        0x080228f1          Code  Wk  startup_stm32f2xx.o [1]
OTG_HS_IRQHandler       0x080228fd          Code  Wk  startup_stm32f2xx.o [1]
OTG_HS_WKUP_IRQHandler  0x080228f9          Code  Wk  startup_stm32f2xx.o [1]
OffsetAddr              0x2000d438     0x4  Data  Gb  ManageCanBus.o [1]
OldPoint                0x2000d330    0x10  Data  Gb  MileMeter.o [1]
OpenCover_input         0x08022778     0x4  Data  Gb  ManagePortControl.o [1]
OperateHostPram         0x0800e9e1   0x79c  Code  Gb  ManageProtocol.o [1]
OperateLockCar          0x0800d38d    0x16  Code  Gb  ManageLockCar.o [1]
OperateUntieCar         0x0800d3a3    0x22  Code  Gb  ManageLockCar.o [1]
OverSpeedAlarm          0x2000d400     0x8  Data  Lc  ModuleGps.o [1]
PADDING                 0x20000000    0x40  Data  Lc  MD5_NEW.o [1]
PVD_IRQHandler          0x080215cf     0x2  Code  Gb  stm32f2xx_it.o [1]
PWR_BackupAccessCmd     0x08017cc1     0x8  Code  Gb  stm32f2xx_pwr.o [1]
PWR_EnterSTOPMode       0x08017cc9    0x38  Code  Gb  stm32f2xx_pwr.o [1]
PacketUpdate_RequestPacketUpdate
                        0x08010b09    0x54  Code  Gb  ManagePacketUpdate.o [1]
PacketUpdate_RequestParm
                        0x08010a9b    0x6e  Code  Gb  ManagePacketUpdate.o [1]
PageWrite               0x0801c749    0x8e  Code  Gb  SpiFlash.o [1]
Parameter_read          0x0800a8e5   0x1bc  Code  Gb  AdapterParameter.o [1]
Parameter_write         0x0800aaa1   0x1de  Code  Gb  AdapterParameter.o [1]
PayLoad_NAME            0x08022710     0x8  Data  Gb  ManageProtocol.o [1]
PayLoad_SIZE            0x08022708     0x8  Data  Gb  ManageProtocol.o [1]
PayLoad_URL             0x08022784     0x4  Data  Gb  ManageProtocol.o [1]
PayLoad_VERSION         0x08022718     0x8  Data  Gb  ManageProtocol.o [1]
Pdu8bitTo7Bit           0x080122ab   0x1e0  Code  Gb  AdapterSms.o [1]
PendSV_Handler          0x080227c1          Code  Wk  startup_stm32f2xx.o [1]
PortControl_AddTotalPowerTime
                        0x08015b05    0x2a  Code  Gb  ManagePortControl.o [1]
PortControl_CleanEverOpenCover
                        0x080157ff    0x1a  Code  Gb  ManagePortControl.o [1]
PortControl_DisableAcc1Exti
                        0x080158d9    0x2a  Code  Gb  ManagePortControl.o [1]
PortControl_DisableOpenCoverExti
                        0x08015933    0x2a  Code  Gb  ManagePortControl.o [1]
PortControl_DisableShakeExti
                        0x080164d9    0x2c  Code  Gb  DriverLis2dh.o [1]
PortControl_EnableAcc1Exti
                        0x080158a9    0x30  Code  Gb  ManagePortControl.o [1]
PortControl_EnableOpenCoverExti
                        0x08015903    0x30  Code  Gb  ManagePortControl.o [1]
PortControl_EnableShakeExti
                        0x080164a5    0x34  Code  Gb  DriverLis2dh.o [1]
PortControl_GetAccOnTime
                        0x0801563d     0x8  Code  Gb  ManagePortControl.o [1]
PortControl_GetAccOnTimeTotal
                        0x080155c9    0x2c  Code  Gb  ManagePortControl.o [1]
PortControl_GetEverOpenCover
                        0x08015819    0x2e  Code  Gb  ManagePortControl.o [1]
PortControl_GetGpsAntOpenCount
                        0x08015889    0x14  Code  Gb  ManagePortControl.o [1]
PortControl_GetGpsOpenFlag
                        0x0801586d     0x6  Code  Gb  ManagePortControl.o [1]
PortControl_GetGpsShortFlag
                        0x08015873     0x6  Code  Gb  ManagePortControl.o [1]
PortControl_GetLockAccOffTime
                        0x080156b9    0x2c  Code  Gb  ManagePortControl.o [1]
PortControl_GetLockAccOnTime
                        0x08015645    0x2c  Code  Gb  ManagePortControl.o [1]
PortControl_GetNoSignAccOnCount
                        0x0801572d    0x30  Code  Gb  ManagePortControl.o [1]
PortControl_GetOpenCoverCount
                        0x08015859    0x14  Code  Gb  ManagePortControl.o [1]
PortControl_GetOpenCoverFlag
                        0x080155c1     0x8  Code  Gb  ManagePortControl.o [1]
PortControl_GetPowerOnTotalTime
                        0x08015847    0x12  Code  Gb  ManagePortControl.o [1]
PortControl_InitExtiInput
                        0x0801595d    0x96  Code  Gb  ManagePortControl.o [1]
PortControl_ReadOpenCoverState
                        0x080159f9     0xa  Code  Gb  ManagePortControl.o [1]
PortControl_SetAccOnTimeTotal
                        0x080155f5    0x48  Code  Gb  ManagePortControl.o [1]
PortControl_SetEverOpenCoverFlag
                        0x080157ad    0x52  Code  Gb  ManagePortControl.o [1]
PortControl_SetGpsAntOpenCount
                        0x08015879    0x10  Code  Gb  ManagePortControl.o [1]
PortControl_SetLockAccOffTime
                        0x080156e5    0x48  Code  Gb  ManagePortControl.o [1]
PortControl_SetLockAccOnTime
                        0x08015671    0x48  Code  Gb  ManagePortControl.o [1]
PortControl_SetNoSignAccOnCount
                        0x0801575d    0x50  Code  Gb  ManagePortControl.o [1]
PortControl_getAccState
                        0x08015439    0x10  Code  Gb  ManagePortControl.o [1]
PortControl_getInputPort
                        0x08015449    0x14  Code  Gb  ManagePortControl.o [1]
PortControl_getPlcControlFlag
                        0x08015483    0x14  Code  Gb  ManagePortControl.o [1]
PortControl_refresh     0x080154bd    0xec  Code  Gb  ManagePortControl.o [1]
PortControl_setInputPort
                        0x0801545d    0x26  Code  Gb  ManagePortControl.o [1]
PortControl_setPlcControlFlag
                        0x08015497    0x26  Code  Gb  ManagePortControl.o [1]
PosTrackParamter        0x08022318    0x14  Data  Gb  AdapterParameter.o [1]
PosTrack_GetDistance    0x0800ccdb    0x34  Code  Gb  ManagePosTrack.o [1]
PosTrack_GetRunInterval
                        0x0800cc45    0x38  Code  Gb  ManagePosTrack.o [1]
PosTrack_GetTrackMode   0x0800cbb7    0x30  Code  Gb  ManagePosTrack.o [1]
PosTrack_SetDistance    0x0800cc7d    0x5e  Code  Gb  ManagePosTrack.o [1]
PosTrack_SetRunInterval
                        0x0800cbe7    0x5e  Code  Gb  ManagePosTrack.o [1]
PosTrack_SetTrackMode   0x0800cb65    0x52  Code  Gb  ManagePosTrack.o [1]
PosTrack_SetUpFlag_Mqtt
                        0x0800cd4f    0x10  Code  Gb  ManagePosTrack.o [1]
PosTrack_UpSubParamData
                        0x0800cd0f    0x20  Code  Gb  ManagePosTrack.o [1]
PosTrack_UpdateNoServerCmdTime
                        0x0800cb09     0xa  Code  Gb  ManagePosTrack.o [1]
PosTrack_WorkData       0x0800cd2f    0x1e  Code  Gb  ManagePosTrack.o [1]
PosTrack_awakenTask     0x0800cae1    0x12  Code  Gb  ManagePosTrack.o [1]
PosTrack_getCycleTime   0x0800cabf     0x6  Code  Gb  ManagePosTrack.o [1]
PosTrack_refreshVal     0x0800cb13    0x52  Code  Gb  ManagePosTrack.o [1]
PosTrack_replaceUploadTime
                        0x0800caf3    0x16  Code  Gb  ManagePosTrack.o [1]
PosTrack_replaceUploadTime_Mqtt
                        0x0800cd4d     0x2  Code  Gb  ManagePosTrack.o [1]
PosTrack_setCycleInterval
                        0x0800ca37    0x88  Code  Gb  ManagePosTrack.o [1]
PosTrack_setVar         0x0800c9df    0x58  Code  Gb  ManagePosTrack.o [1]
PosTrack_stopRealUp     0x0800cac5    0x1c  Code  Gb  ManagePosTrack.o [1]
PowerOnReadSms          0x2000d49c     0x1  Data  Gb  GprsNetwork.o [1]
Protect_Ctrl            0x08022788     0x4  Data  Gb  ManageVoltSample.o [1]
Protocol_AAAlarm        0x0800f685    0x88  Code  Gb  ManageProtocol.o [1]
Protocol_AsciiIP2Hex    0x0800f7fd    0x80  Code  Gb  ManageProtocol.o [1]
Protocol_GetLoginToPrivateServerFlag
                        0x0800f8c1     0x8  Code  Gb  ManageProtocol.o [1]
Protocol_SIMChangeAlam  0x0800f5c5    0x88  Code  Gb  ManageProtocol.o [1]
Protocol_SetLoginToPrivateServerFlag
                        0x0800f8cd    0x1a  Code  Gb  ManageProtocol.o [1]
Protocol_TakeSMSFromServer
                        0x0800f72d    0xd0  Code  Gb  ManageProtocol.o [1]
Protocol_addSendData    0x0800e0ef    0x82  Code  Gb  ManageProtocol.o [1]
Protocol_creatPack      0x0800e001    0x90  Code  Gb  ManageProtocol.o [1]
Protocol_creatPack_Mqtt
                        0x0800f97d    0x38  Code  Gb  ManageProtocol.o [1]
Protocol_getProtocolPosInfo
                        0x0800e235   0x25e  Code  Gb  ManageProtocol.o [1]
Protocol_getProtocolUpgradeInfo_MQTT
                        0x0800fa0d   0x164  Code  Gb  ManageProtocol.o [1]
Protocol_getProtocolUpgradeResult_MQTT
                        0x0800fb95   0x1c2  Code  Gb  ManageProtocol.o [1]
Protocol_lockSendRes    0x0800df4b    0xb6  Code  Gb  ManageProtocol.o [1]
Protocol_lockSendRes_Mqtt
                        0x0800f8e7    0x96  Code  Gb  ManageProtocol.o [1]
Protocol_loginRemoteUpdateServer
                        0x0800f87d    0x44  Code  Gb  ManageProtocol.o [1]
Protocol_loginServer    0x0800e493    0xb6  Code  Gb  ManageProtocol.o [1]
Protocol_posTrack       0x0800e549    0x60  Code  Gb  ManageProtocol.o [1]
Protocol_send2Server    0x0800e171    0x9c  Code  Gb  ManageProtocol.o [1]
Protocol_send2Server_Mqtt
                        0x0800f9b5    0x58  Code  Gb  ManageProtocol.o [1]
Protocol_setPotIndex    0x0800e091    0x5e  Code  Gb  ManageProtocol.o [1]
Public_CheckTimeStruct  0x08011947    0x50  Code  Gb  EeyeLib.o [1]
Public_ConvertAscToDec  0x08011919    0x2e  Code  Gb  EeyeLib.o [1]
PulseWakeFlag           0x2000d4a3     0x1  Data  Lc  ManageBusPulse.o [1]
RCC_AHB1PeriphClockCmd  0x08016979    0x20  Code  Gb  stm32f2xx_rcc.o [1]
RCC_APB1PeriphClockCmd  0x08016999    0x20  Code  Gb  stm32f2xx_rcc.o [1]
RCC_APB2PeriphClockCmd  0x080169b9    0x20  Code  Gb  stm32f2xx_rcc.o [1]
RCC_BackupResetCmd      0x08016971     0x8  Code  Gb  stm32f2xx_rcc.o [1]
RCC_ChangeToHSI         0x08014b9d    0x50  Code  Gb  main.o [1]
RCC_ClockSecuritySystemCmd
                        0x080167dd     0xa  Code  Gb  stm32f2xx_rcc.o [1]
RCC_Configuration       0x08014bed    0x72  Code  Gb  main.o [1]
RCC_DeInit              0x080166dd    0x4e  Code  Gb  stm32f2xx_rcc.o [1]
RCC_GetClocksFreq       0x08016855    0xe2  Code  Gb  stm32f2xx_rcc.o [1]
RCC_GetFlagStatus       0x080169d9    0x44  Code  Gb  stm32f2xx_rcc.o [1]
RCC_GetSYSCLKSource     0x080167ff     0xc  Code  Gb  stm32f2xx_rcc.o [1]
RCC_HCLKConfig          0x0801680b    0x18  Code  Gb  stm32f2xx_rcc.o [1]
RCC_HSEConfig           0x0801672b    0x10  Code  Gb  stm32f2xx_rcc.o [1]
RCC_IRQHandler          0x080215d3     0x2  Code  Gb  stm32f2xx_it.o [1]
RCC_LSEConfig           0x08016775    0x32  Code  Gb  stm32f2xx_rcc.o [1]
RCC_LSICmd              0x080167a7     0xa  Code  Gb  stm32f2xx_rcc.o [1]
RCC_PCLK1Config         0x08016823    0x18  Code  Gb  stm32f2xx_rcc.o [1]
RCC_PCLK2Config         0x0801683b    0x1a  Code  Gb  stm32f2xx_rcc.o [1]
RCC_PLLCmd              0x080167d3     0xa  Code  Gb  stm32f2xx_rcc.o [1]
RCC_PLLConfig           0x080167b1    0x22  Code  Gb  stm32f2xx_rcc.o [1]
RCC_RTCCLKCmd           0x08016969     0x8  Code  Gb  stm32f2xx_rcc.o [1]
RCC_RTCCLKConfig        0x08016937    0x32  Code  Gb  stm32f2xx_rcc.o [1]
RCC_SYSCLKConfig        0x080167e7    0x18  Code  Gb  stm32f2xx_rcc.o [1]
RCC_WaitForHSEStartUp   0x0801673b    0x3a  Code  Gb  stm32f2xx_rcc.o [1]
ROM_FILE_LENGTH         0x2000d448     0x4  Data  Gb  ManageCanBus.o [1]
ROM_NO_OF_BLOCK         0x2000d428     0x4  Data  Gb  ManageCanBus.o [1]
ROM_NO_OF_BLOCK_FOR_VALIDATION
                        0x2000d42c     0x4  Data  Gb  ManageCanBus.o [1]
ROM_NO_OF_REMAINING_BYTES
                        0x2000d48a     0x2  Data  Gb  ManageCanBus.o [1]
RTC_Alarm_IRQHandler    0x0802286d          Code  Wk  startup_stm32f2xx.o [1]
RTC_Bcd2ToByte          0x08017c27    0x16  Code  Lc  stm32f2xx_rtc.o [1]
RTC_Bcd2ToByte_EyeLib   0x08011825    0x16  Code  Gb  EeyeLib.o [1]
RTC_ByteToBcd2          0x08017c11    0x16  Code  Lc  stm32f2xx_rtc.o [1]
RTC_ByteToBcd2_EyeLib   0x0801180f    0x16  Code  Gb  EeyeLib.o [1]
RTC_ClearFlag           0x08017b71    0x18  Code  Gb  stm32f2xx_rtc.o [1]
RTC_ClearITPendingBit   0x08017bc7    0x1e  Code  Gb  stm32f2xx_rtc.o [1]
RTC_Configuration       0x08012c8b    0x80  Code  Gb  rtc.o [1]
RTC_DateStructure       0x2000d474     0x4  Data  Gb  rtc.o [1]
RTC_EnterInitMode       0x08017735    0x54  Code  Gb  stm32f2xx_rtc.o [1]
RTC_ExitInitMode        0x08017789    0x12  Code  Gb  stm32f2xx_rtc.o [1]
RTC_GetDate             0x080179c3    0x4c  Code  Gb  stm32f2xx_rtc.o [1]
RTC_GetITStatus         0x08017b89    0x3e  Code  Gb  stm32f2xx_rtc.o [1]
RTC_GetTime             0x080178bb    0x50  Code  Gb  stm32f2xx_rtc.o [1]
RTC_ITConfig            0x08017b1b    0x56  Code  Gb  stm32f2xx_rtc.o [1]
RTC_Init                0x080176c5    0x70  Code  Gb  stm32f2xx_rtc.o [1]
RTC_ReadBackupRegister  0x08017b01    0x1a  Code  Gb  stm32f2xx_rtc.o [1]
RTC_SetDate             0x0801790b    0xb8  Code  Gb  stm32f2xx_rtc.o [1]
RTC_SetTime             0x080177ff    0xbc  Code  Gb  stm32f2xx_rtc.o [1]
RTC_SetWakeUpCounter    0x08017a47    0x20  Code  Gb  stm32f2xx_rtc.o [1]
RTC_TimeStructure       0x2000d470     0x4  Data  Gb  rtc.o [1]
RTC_WKUP_IRQHandler     0x0800a4b1    0x28  Code  Gb  InterfaceSystem.o [1]
RTC_WaitForSynchro      0x0801779b    0x64  Code  Gb  stm32f2xx_rtc.o [1]
RTC_WakeUpClockConfig   0x08017a0f    0x38  Code  Gb  stm32f2xx_rtc.o [1]
RTC_WakeUpCmd           0x08017a67    0x80  Code  Gb  stm32f2xx_rtc.o [1]
RTC_WriteBackupRegister
                        0x08017ae7    0x1a  Code  Gb  stm32f2xx_rtc.o [1]
RT_Get_Temperature      0x08014dfb    0x16  Code  Gb  ManageDs18b20.o [1]
RT_Init                 0x08014ded     0xe  Code  Gb  ManageDs18b20.o [1]
RT_Power_Ctrl           0x08022760     0x4  Data  Gb  ManageDs18b20.o [1]
RT_Power_On             0x08014de1     0xc  Code  Gb  ManageDs18b20.o [1]
ReadRtc                 0x08012d5d    0x4a  Code  Gb  rtc.o [1]
ReadSmsFromSim          0x080059a9    0x64  Code  Gb  GprsNetwork.o [1]
ReadUnlockSms           0x2000d49d     0x1  Data  Gb  GprsNetwork.o [1]
ReadWordFromFlash       0x080104b1     0xa  Code  Gb  ManageFlashProgram.o [1]
RecTopicObject          0x2000c788    0x98  Data  Gb  GprsNetwork.o [1]
RecordIndex             0x2000d430     0x4  Data  Gb  ManageCanBus.o [1]
Region$$Table$$Base     0x08021fa4           --   Gb  - Linker created -
Region$$Table$$Limit    0x08021fd0           --   Gb  - Linker created -
Reset_Handler           0x08022205          Code  Wk  startup_stm32f2xx.o [1]
RestIgtPin              0x08005a3d     0xe  Code  Gb  GprsNetwork.o [1]
Rtc_InitInterrupt       0x08012f17    0x22  Code  Gb  rtc.o [1]
SDIO_IRQHandler         0x08021675     0x2  Code  Gb  stm32f2xx_it.o [1]
SHLOR                   0x0801e011     0xe  Code  Gb  encryption.o [4]
SOFTVER                 0x2000d492     0x2  Data  Gb  main.o [1]
SPI1_IRQHandler         0x08021637    0x22  Code  Gb  stm32f2xx_it.o [1]
SPI2_IRQHandler         0x0802166d     0x2  Code  Gb  stm32f2xx_it.o [1]
SPI3_IRQHandler         0x08021679     0x2  Code  Gb  stm32f2xx_it.o [1]
SPI_I2S_ITConfig        0x08021681    0x2c  Code  Gb  stm32f2xx_spi.o [1]
SVC_Handler             0x080227b9          Code  Wk  startup_stm32f2xx.o [1]
SYSCFG_EXTILineConfig   0x0801d469    0x50  Code  Gb  stm32f2xx_syscfg.o [1]
SavePosition            0x0800c205    0x48  Code  Gb  ModuleGps.o [1]
SecureAccessSeed        0x2000d41c     0x4  Data  Gb  ManageCanBus.o [1]
Security_Seed_Request   0x0801ae35    0x5a  Code  Gb  ManageCanBus.o [1]
SendAAAlamSms2Server    0x0800d565    0x1e  Code  Gb  ManageLockCar.o [1]
SendAtCmd               0x08005781    0xb8  Code  Gb  GprsNetwork.o [1]
SendByte                0x0801c81f     0xc  Code  Gb  SpiFlash.o [1]
SendCmdData2Gprs        0x08005849    0x9c  Code  Gb  GprsNetwork.o [1]
SendPosSms2Server       0x0800d36f    0x1e  Code  Gb  ManageLockCar.o [1]
SendSimChangeAlamSms2Server
                        0x0800d547    0x1e  Code  Gb  ManageLockCar.o [1]
SendSmsInit             0x08005bb5    0xae  Code  Gb  GprsNetwork.o [1]
ServerRead_MD5Final     0x0801f357    0x82  Code  Gb  MD5_NEW.o [1]
ServerRead_MD5Start     0x0801ea19    0x2a  Code  Gb  MD5_NEW.o [1]
SetIgtPin               0x08005a4b     0xe  Code  Gb  GprsNetwork.o [1]
SetRtc                  0x08012d0b    0x52  Code  Gb  rtc.o [1]
SetSysClock             0x08020f9b    0xb6  Code  Lc  system_stm32f2xx.o [1]
SetupGprsSendData       0x08005b63    0x52  Code  Gb  GprsNetwork.o [1]
SetupGprsSendData_Mqtt  0x08009449    0x6e  Code  Gb  GprsNetwork.o [1]
SetupIp                 0x08005a59    0xb0  Code  Gb  GprsNetwork.o [1]
SetupPdp                0x08005b09    0x5a  Code  Gb  GprsNetwork.o [1]
Setup_SubTopic          0x080090b5    0x64  Code  Gb  GprsNetwork.o [1]
Setup_TerminalID        0x08008d79   0x1ae  Code  Gb  GprsNetwork.o [1]
ShakeStatus             0x2000d497     0x1  Data  Lc  DriverLis2dh.o [1]
SmsRecvTime             0x2000cff8    0x34  Data  Gb  AdapterSms.o [1]
Sms_Init                0x08011c21    0xce  Code  Gb  AdapterSms.o [1]
Sms_analyPduMsg         0x08011f67   0x152  Code  Gb  AdapterSms.o [1]
Sms_getSmsTel           0x08011da5    0x2a  Code  Gb  AdapterSms.o [1]
Sms_packPduMsg          0x08011dcf   0x198  Code  Gb  AdapterSms.o [1]
Sms_refreshVal          0x080120b9    0x1a  Code  Gb  AdapterSms.o [1]
Sms_sendSms2Server      0x08011cef    0x4c  Code  Gb  AdapterSms.o [1]
Sms_setSmsTel           0x08011d3b    0x6a  Code  Gb  AdapterSms.o [1]
SoftwareVer             0x2000d46c     0x4  Data  Gb  main.o [1]
SpiFlash_BufferRead     0x0801c6d5    0x74  Code  Gb  SpiFlash.o [1]
SpiFlash_BufferWrite    0x0801c52d   0x1a8  Code  Gb  SpiFlash.o [1]
SpiFlash_SectorErase    0x0801c4b7    0x76  Code  Gb  SpiFlash.o [1]
SpiFlash_init           0x0801c411    0xa6  Code  Gb  SpiFlash.o [1]
StartAddr               0x2000d43c     0x4  Data  Gb  ManageCanBus.o [1]
Start_input             0x08022774     0x4  Data  Gb  ManagePortControl.o [1]
StateCmdLoop            0x080061b5    0x74  Code  Gb  GprsNetwork.o [1]
StateDelSms             0x080066cd    0x36  Code  Gb  GprsNetwork.o [1]
StateDialCmd            0x0800623d   0x192  Code  Gb  GprsNetwork.o [1]
StateDialCmd_Mqtt       0x08008f35   0x180  Code  Gb  GprsNetwork.o [1]
StateDownData           0x0800651d    0x62  Code  Gb  GprsNetwork.o [1]
StateDownData_Mqtt      0x080093e9    0x50  Code  Gb  GprsNetwork.o [1]
StateModelInit          0x08005f51    0x7a  Code  Gb  GprsNetwork.o [1]
StatePowerOff           0x08006711    0xc8  Code  Gb  GprsNetwork.o [1]
StatePowerOn            0x08005e85    0xc0  Code  Gb  GprsNetwork.o [1]
StateReadSms            0x08006589    0x6c  Code  Gb  GprsNetwork.o [1]
StateSendGprsData       0x080063e1   0x136  Code  Gb  GprsNetwork.o [1]
StateSendGprsData_Mqtt  0x08009341    0x98  Code  Gb  GprsNetwork.o [1]
StateSendSms            0x080065fd    0xca  Code  Gb  GprsNetwork.o [1]
StateSimInit            0x08005fd1    0xd0  Code  Gb  GprsNetwork.o [1]
StateSubCmd             0x08009129    0xb4  Code  Gb  GprsNetwork.o [1]
StateTimeSyncInit       0x080060b1    0xfe  Code  Gb  GprsNetwork.o [1]
Stm32_refreshSystem     0x080149f1    0x24  Code  Gb  main.o [1]
Str2Int                 0x080119a9    0x22  Code  Gb  EeyeLib.o [1]
SuperPasswordParameter  0x08021910    0x68  Data  Gb  AdapterParameter.o [1]
SwitchGsmState          0x08004989   0x89e  Code  Gb  GprsNetwork.o [1]
SysTick_CLKSourceConfig
                        0x08017c3d    0x20  Code  Gb  stm32f2xx_systick.o [1]
SysTick_CounterCmd      0x08017c63    0x2e  Code  Gb  stm32f2xx_systick.o [1]
SysTick_Handler         0x0801ce6d     0xc  Code  Gb  DriveSysTick.o [1]
SysTick_ITConfig        0x08017c91    0x22  Code  Gb  stm32f2xx_systick.o [1]
SysTick_SetReload       0x08017c5d     0x6  Code  Gb  stm32f2xx_systick.o [1]
SysTick_initInterrupt   0x0801ce5d    0x10  Code  Gb  DriveSysTick.o [1]
SysVoltChoice           0x0802278c     0x4  Data  Gb  ManageVoltSample.o [1]
SystemInit              0x08020f55    0x46  Code  Gb  system_stm32f2xx.o [1]
System_EnterStopMode    0x0800a081    0x1e  Code  Gb  InterfaceSystem.o [1]
System_GetEndDeepSleepUp
                        0x0800a651    0x12  Code  Gb  InterfaceSystem.o [1]
System_GetPreSleepFlag  0x08009de1     0x6  Code  Gb  InterfaceSystem.o [1]
System_GetSleepNeedUpWorkPram
                        0x0800a645     0x6  Code  Gb  InterfaceSystem.o [1]
System_GetSolfVerison   0x08014c77    0xda  Code  Gb  main.o [1]
System_GetTransitionSta
                        0x08009c41     0x8  Code  Gb  InterfaceSystem.o [1]
System_JudgeLowPowerState
                        0x08009c5d   0x184  Code  Gb  InterfaceSystem.o [1]
System_SetShakeUpSta    0x08009c39     0x8  Code  Gb  InterfaceSystem.o [1]
System_SetSleepNeedUpWorkPram
                        0x0800a64b     0x6  Code  Gb  InterfaceSystem.o [1]
System_SetWakeUpRtc     0x0800a065    0x1c  Code  Gb  InterfaceSystem.o [1]
System_TransitionProc   0x08009b11   0x128  Code  Gb  InterfaceSystem.o [1]
System_delayEntryLowPower
                        0x08009e37     0xa  Code  Gb  InterfaceSystem.o [1]
System_exitLowPower     0x08009e41     0xe  Code  Gb  InterfaceSystem.o [1]
System_getLowPowerState
                        0x08009c49    0x14  Code  Gb  InterfaceSystem.o [1]
System_powerRefresh     0x08009e4f    0xae  Code  Gb  InterfaceSystem.o [1]
System_refresh          0x08009f15     0x2  Code  Gb  InterfaceSystem.o [1]
System_restart          0x08009de7    0x50  Code  Gb  InterfaceSystem.o [1]
System_updataLowPowerDelayTime
                        0x08009f85    0x22  Code  Gb  InterfaceSystem.o [1]
TAMP_STAMP_IRQHandler   0x080227d1          Code  Wk  startup_stm32f2xx.o [1]
TIM1_BRK_TIM9_IRQHandler
                        0x08022829          Code  Wk  startup_stm32f2xx.o [1]
TIM1_CC_IRQHandler      0x08021627     0x2  Code  Gb  stm32f2xx_it.o [1]
TIM1_TRG_COM_TIM11_IRQHandler
                        0x08022831          Code  Wk  startup_stm32f2xx.o [1]
TIM1_UP_TIM10_IRQHandler
                        0x0802282d          Code  Wk  startup_stm32f2xx.o [1]
TIM2_IRQHandler         0x08021629     0x2  Code  Gb  stm32f2xx_it.o [1]
TIM3_IRQHandler         0x0802162b     0x2  Code  Gb  stm32f2xx_it.o [1]
TIM4_IRQHandler         0x0802162d     0x2  Code  Gb  stm32f2xx_it.o [1]
TIM5_IRQHandler         0x08021677     0x2  Code  Gb  stm32f2xx_it.o [1]
TIM6_DAC_IRQHandler     0x080228a1          Code  Wk  startup_stm32f2xx.o [1]
TIM7_IRQHandler         0x0802167d     0x2  Code  Gb  stm32f2xx_it.o [1]
TIM8_BRK_TIM12_IRQHandler
                        0x08022875          Code  Wk  startup_stm32f2xx.o [1]
TIM8_CC_IRQHandler      0x08021671     0x2  Code  Gb  stm32f2xx_it.o [1]
TIM8_TRG_COM_TIM14_IRQHandler
                        0x0802287d          Code  Wk  startup_stm32f2xx.o [1]
TIM8_UP_TIM13_IRQHandler
                        0x08022879          Code  Wk  startup_stm32f2xx.o [1]
Table                   0x080223a4    0x14  Data  Gb  ManageKeyUnlock.o [1]
TableTim                0x08022548    0x10  Data  Gb  ManageWorkStat.o [1]
TakeCmdFromServer       0x0800e5c5   0x3fc  Code  Gb  ManageProtocol.o [1]
TakeCmdFromServer_Mqtt  0x0800fd69   0x1ce  Code  Gb  ManageProtocol.o [1]
TaskAlarm               0x0800b0b7   0x1a2  Code  Gb  ManageAlarm.o [1]
TaskBusPulse            0x080180cb   0x172  Code  Gb  ManageBusPulse.o [1]
TaskCan                 0x08019707   0x51e  Code  Gb  ManageCanBus.o [1]
TaskDs18b20             0x08014dd1     0x8  Code  Gb  ManageDs18b20.o [1]
TaskExDev               0x080133ff   0x1e4  Code  Gb  ManageExDev.o [1]
TaskGprs                0x08004373   0x18a  Code  Gb  GprsNetwork.o [1]
TaskGps                 0x0800b4b9   0x46c  Code  Gb  ModuleGps.o [1]
TaskGpsMileMeter        0x0801ba3d    0x9e  Code  Gb  MileMeter.o [1]
TaskInterfaceInCom      0x0801cab9    0xb6  Code  Gb  InterfaceInCom.o [1]
TaskKeyUnlock           0x0801267d    0xae  Code  Gb  ManageKeyUnlock.o [1]
TaskLockCar             0x0800cfad   0x25c  Code  Gb  ManageLockCar.o [1]
TaskManageFlash         0x0801007f   0x2ae  Code  Gb  ManageFlashProgram.o [1]
TaskNewBusOut           0x0801c2d1     0xa  Code  Gb  NewBusOut.o [1]
TaskPortControl         0x08014fc1   0x478  Code  Gb  ManagePortControl.o [1]
TaskPosTrack            0x0800c45d   0x582  Code  Gb  ManagePosTrack.o [1]
TaskProtocol            0x0800d727   0x824  Code  Gb  ManageProtocol.o [1]
TaskSystem              0x08009843   0x2ce  Code  Gb  InterfaceSystem.o [1]
TaskTimer               0x0800a749    0x9c  Code  Gb  ManageTime.o [1]
TaskVoltSample          0x08016b7f   0x1c6  Code  Gb  ManageVoltSample.o [1]
TaskWatchdog            0x080141ad     0xe  Code  Gb  ManageWatchdog.o [1]
TaskWorkStat            0x08020c8d    0x6a  Code  Gb  ManageWorkStat.o [1]
TempId                  0x2000d2c0    0x14  Data  Lc  ManageProtocol.o [1]
Temp_Arrary             0x20000120    0x18  Data  Lc  GprsNetwork.o [1]
TerminalObject          0x2000d418     0x4  Data  Gb  InterfaceSystem.o [1]
TerminalProperty        0x08021ab8    0x40  Data  Gb  main.o [1]
Time_getSystemTimer     0x0800a7e5     0x6  Code  Gb  ManageTime.o [1]
Timer_getGmtTime        0x0800a867    0x44  Code  Gb  ManageTime.o [1]
Timer_setGmtTime        0x0800a809    0x5e  Code  Gb  ManageTime.o [1]
Timer_sysTimeDly        0x0800a7f7    0x12  Code  Gb  ManageTime.o [1]
Timer_upSysTime         0x0800a7eb     0xc  Code  Gb  ManageTime.o [1]
Topic_Device            0x080226c0     0x8  Data  Gb  GprsNetwork.o [1]
Topic_Inform            0x080226c8     0x8  Data  Gb  GprsNetwork.o [1]
Topic_Ota               0x080226b8     0x8  Data  Gb  GprsNetwork.o [1]
Topic_Progress          0x080225d8     0xc  Data  Gb  GprsNetwork.o [1]
Topic_Result            0x080226d8     0x8  Data  Gb  GprsNetwork.o [1]
Topic_Upgrade           0x080226d0     0x8  Data  Gb  GprsNetwork.o [1]
UART4_IRQHandler        0x08022899          Code  Wk  startup_stm32f2xx.o [1]
UART5_IRQHandler        0x0802167b     0x2  Code  Gb  stm32f2xx_it.o [1]
USART1_IRQHandler       0x08014073    0x7a  Code  Gb  DriveUsart1.o [1]
USART2_IRQHandler       0x0801cf43    0x86  Code  Gb  DriveUsart2.o [1]
USART3_IRQHandler       0x08022865          Code  Wk  startup_stm32f2xx.o [1]
USART6_IRQHandler       0x08018bcd    0x8e  Code  Gb  DriveUsart6.o [1]
USART_Cmd               0x08011a9d    0x1c  Code  Gb  stm32f2xx_usart.o [1]
USART_DMACmd            0x08011ac9    0x18  Code  Gb  stm32f2xx_usart.o [1]
USART_GetFlagStatus     0x08011b33    0x1c  Code  Gb  stm32f2xx_usart.o [1]
USART_GetITStatus       0x08011b4f    0x64  Code  Gb  stm32f2xx_usart.o [1]
USART_ITConfig          0x08011ae1    0x52  Code  Gb  stm32f2xx_usart.o [1]
USART_Init              0x080119d9    0xb6  Code  Gb  stm32f2xx_usart.o [1]
USART_ReceiveData       0x08011ac1     0x8  Code  Gb  stm32f2xx_usart.o [1]
USART_SendData          0x08011ab9     0x8  Code  Gb  stm32f2xx_usart.o [1]
Uds_State               0x2000d4a9     0x1  Data  Gb  ManageCanBus.o [1]
Uds_TxEnd_flag          0x2000d4aa     0x1  Data  Gb  ManageCanBus.o [1]
Uds_Update_Sta          0x2000d4a8     0x1  Data  Gb  ManageCanBus.o [1]
UpgradeParam_DESC_FAIL  0x08022268    0x18  Data  Lc  ManageProtocol.o [1]
UpgradeParam_DESC_OK    0x08022178    0x1c  Data  Lc  ManageProtocol.o [1]
UpgradeParam_ID         0x080226f0     0x8  Data  Lc  ManageProtocol.o [1]
UpgradeParam_PARAM      0x08022614     0xc  Data  Lc  ManageProtocol.o [1]
UpgradeParam_RESULT_FAIL
                        0x080224e8    0x10  Data  Lc  ManageProtocol.o [1]
UpgradeParam_RESULT_OK  0x080224d8    0x10  Data  Lc  ManageProtocol.o [1]
UpgradeParam_TIME       0x080226f8     0x8  Data  Lc  ManageProtocol.o [1]
UpgradeParam_VALUE      0x08022620     0xc  Data  Lc  ManageProtocol.o [1]
UpgradeParam_VALUE_1    0x0802262c     0xc  Data  Lc  ManageProtocol.o [1]
UpgradeParam_VERSION    0x080224c8    0x10  Data  Lc  ManageProtocol.o [1]
UpgradeParam_VERSION_MCU
                        0x08022638     0xc  Data  Lc  ManageProtocol.o [1]
UpgradeParam_name       0x08022700     0x8  Data  Lc  ManageProtocol.o [1]
UsageFault_Handler      0x080227b5          Code  Wk  startup_stm32f2xx.o [1]
Usart1_ISR_Rx           0x080074bd    0x3c  Code  Gb  GprsNetwork.o [1]
Usart1_ISR_Tx           0x08007505    0x9a  Code  Gb  GprsNetwork.o [1]
Usart1_initInterrupt    0x08014063    0x10  Code  Gb  DriveUsart1.o [1]
Usart2_ISR_Rx           0x0801cc7f    0xe4  Code  Gb  InterfaceInCom.o [1]
Usart2_ISR_Tx           0x0801cd63    0x78  Code  Gb  InterfaceInCom.o [1]
Usart2_initInterrupt    0x0801cf33    0x10  Code  Gb  DriveUsart2.o [1]
Usart2_receFromExDev    0x0801cbe1    0x9e  Code  Gb  InterfaceInCom.o [1]
Usart2_send2ExDev       0x0801cb6f    0x72  Code  Gb  InterfaceInCom.o [1]
Usart6_ISR_Rx           0x0800ba55   0x1be  Code  Gb  ModuleGps.o [1]
Usart6_initInterrupt    0x08018bbd    0x10  Code  Gb  DriveUsart6.o [1]
WWDG_IRQHandler         0x080215cd     0x2  Code  Gb  stm32f2xx_it.o [1]
WWDG_SetCounter         0x0801cdf1     0xc  Code  Gb  stm32f2xx_wwdg.o [1]
WaitForWriteEnd         0x0801c7f1    0x2e  Code  Gb  SpiFlash.o [1]
Watchdog_ReInitWatchdog
                        0x08014201    0x22  Code  Gb  ManageWatchdog.o [1]
Watchdog_reloadCounter  0x080141bd    0x20  Code  Gb  ManageWatchdog.o [1]
Watchdog_restartSystem  0x080141bb     0x2  Code  Gb  ManageWatchdog.o [1]
Watchdog_setCounter     0x080141dd    0x1c  Code  Gb  ManageWatchdog.o [1]
WriteAreaAlarmPosDataToEEPROM
                        0x08015e25    0x28  Code  Gb  ManageBlindArea.o [1]
WriteEnable             0x0801c7d7    0x1a  Code  Gb  SpiFlash.o [1]
YearDay                 0x08012de1    0x54  Code  Gb  rtc.o [1]
_Close_all              0x08021979    0x58  Code  Gb  xcloseall.o [3]
_EncodingSb_Mbtowc      0x0801fca9    0x30  Code  Gb  xencoding_sb.o [3]
_EncodingSb_Wctomb      0x0801fc8d    0x1c  Code  Gb  xencoding_sb.o [3]
_Files                  0x20000100    0x20  Data  Gb  xfiles.o [3]
_Fofree                 0x08021861    0x7a  Code  Gb  xfofind.o [3]
_Fspos                  0x0802116d    0xd4  Code  Gb  xfspos.o [3]
_Fwprep                 0x080214f1    0xb2  Code  Gb  xfwprep.o [3]
_IsdstStr               0x2000ca30     0x4  Data  Gb  setlocale.o [3]
_LitobSmall             0x080192d3    0xd0  Code  Lc  xprintfsmall.o [3]
_LocaleC_isspace        0x080202a7    0x14  Code  Gb  xlocale_c.o [3]
_LocaleC_tolower        0x080202bb     0xc  Code  Gb  xlocale_c.o [3]
_LocaleEncoding         0x0801fc7b     0xe  Code  Gb  setlocale.o [3]
_LocaleForCat           0x0801fc69    0x12  Code  Gb  setlocale.o [3]
_LocaleReturnString     0x2000ca50    0x50  Data  Lc  setlocale.o [3]
_Locale_Profile         0x2000ca34    0x1c  Data  Gb  setlocale.o [3]
_Mbtowc                 0x0801d8c3    0x20  Code  Gb  xmbtowc.o [3]
_Nnl                    0x080212f5     0xc  Code  Gb  xfgpos.o [3]
_PrintfSmall            0x08018cad   0x41e  Code  Gb  xprintfsmall.o [3]
_Prout                  0x080222e1    0x16  Code  Gb  xprout.o [3]
_PutcharsSmall          0x080193a3    0x2e  Code  Lc  xprintfsmall.o [3]
_PutstrSmall            0x080190cb   0x202  Code  Lc  xprintfsmall.o [3]
_SProut                 0x0800cda3     0xa  Code  Gb  xsprout.o [3]
_TzoneStr               0x2000ca2c     0x4  Data  Gb  setlocale.o [3]
_Wctomb                 0x0801da05    0x1a  Code  Gb  xwctomb.o [3]
__aeabi_cdcmpeq         0x0801f855          Code  Gb  DblCmpEq.o [5]
__aeabi_cdcmple         0x08020279          Code  Gb  DblCmpLe.o [5]
__aeabi_cdrcmple        0x0801f4f5          Code  Gb  DblCmpGe.o [5]
__aeabi_d2iz            0x0801d691          Code  Gb  DblToI32.o [5]
__aeabi_d2uiz           0x0801d6bd          Code  Gb  DblToI32.o [5]
__aeabi_dadd            0x0801f525          Code  Gb  DblAdd.o [5]
__aeabi_ddiv            0x0801f60d          Code  Gb  DblDiv.o [5]
__aeabi_dmul            0x0801d4ed          Code  Gb  DblMul.o [5]
__aeabi_dsub            0x0801f87d          Code  Gb  DblSub.o [5]
__aeabi_errno_addr      0x080200e9     0x6  Code  Gb  errno.o [3]
__aeabi_i2d             0x0801d4bd          Code  Gb  I32ToDbl.o [5]
__aeabi_memclr4         0x08012ff5          Code  Gb  ABImemclr4.o [6]
__aeabi_memcpy          0x08017f39          Code  Gb  ABImemcpy.o [6]
__aeabi_memcpy4         0x08017f59          Code  Gb  ABImemcpy.o [6]
__aeabi_memcpy8         0x08017f59          Code  Gb  ABImemcpy.o [6]
__aeabi_memmove         0x0801daa9          Code  Gb  ABImemmove.o [6]
__aeabi_memmove4        0x0801daa9          Code  Gb  ABImemmove.o [6]
__aeabi_memmove8        0x0801daa9          Code  Gb  ABImemmove.o [6]
__aeabi_memset          0x08018a9d          Code  Gb  ABImemset.o [6]
__aeabi_ui2d            0x0801d4d1          Code  Gb  I32ToDbl.o [5]
__cexit_clearlocks      0x080222bf          Code  Gb  cexit.o [6]
__cexit_closeall        0x080222bb          Code  Gb  cexit.o [6]
__close                 0x080218e1    0x1a  Code  Gb  close.o [7]
__cmain                 0x08022299          Code  Gb  cmain.o [6]
__cstart_clearlocks     0x0802290c          Data  Gb  cstart_clearlocks.o [6]
__cstart_closeall       0x0802290c          Data  Gb  cstart_closeall.o [6]
__data_Aldata           0x2000d410     0x8  Data  Gb  xxmemxmalloc.o [3]
__data_GetMemChunk      0x0801fe9d    0x28  Code  Gb  xgetmemchunk.o [3]
__dwrite                0x0802135d    0x1e  Code  Gb  dwrite.o [7]
__exit                  0x080222cd    0x14  Code  Gb  exit.o [7]
__iar_Dint              0x080202c7    0x7a  Code  Gb  xdint.o [5]
__iar_Errno             0x2000d47c     0x4  Data  Gb  errno.o [3]
__iar_Lockfilelock      0x0801fd5d    0x8c  Code  Gb  xsyslock.o [3]
__iar_Locksyslock       0x0801fdff    0x88  Code  Gb  xsyslock.o [3]
__iar_Mbcurmax          0x0801d93d     0xa  Code  Gb  xmbcurmax.o [3]
__iar_Memchr            0x0801d8e5          Code  Gb  memchr.o [6]
__iar_Memset            0x08018a9d          Code  Gb  ABImemset.o [6]
__iar_Memset4_word      0x0801c9fd          Code  Gb  ABImemset48.o [6]
__iar_Memset8_word      0x0801c9fd          Code  Gb  ABImemset48.o [6]
__iar_Memset_word       0x08018aa5          Code  Gb  ABImemset.o [6]
__iar_Quad              0x08020109   0x170  Code  Gb  xquad.o [5]
__iar_SB                0x0802290c          Data  Gb  bwt_init3c.o [6]
__iar_Sin               0x0801fec5   0x1f0  Code  Gb  xsin.o [5]
__iar_Stderr            0x200000c0    0x40  Data  Gb  xfiles.o [3]
__iar_Stdin             0x20000040    0x40  Data  Gb  xfiles.o [3]
__iar_Stdout            0x20000080    0x40  Data  Gb  xfiles.o [3]
__iar_Stoul             0x0801fc13     0x4  Code  Gb  xstoul.o [3]
__iar_Stoulx            0x0801faf5   0x11e  Code  Gb  xstoul.o [3]
__iar_Strchr            0x08012c19          Code  Gb  strchr.o [6]
__iar_Strstr            0x0801c8f1    0x2c  Code  Gb  strstr.o [3]
__iar_Unlockfilelock    0x0801fde9    0x16  Code  Gb  xsyslock.o [3]
__iar_Unlocksyslock     0x0801fe87    0x12  Code  Gb  xsyslock.o [3]
__iar_clearlocks        0x0801fce9    0x74  Code  Gb  xsyslock.o [3]
__iar_close_ttio        0x080213bd    0x2e  Code  Gb  iarttio.o [7]
__iar_d2uiz             0x0801d6c9          Code  Gb  DblToI32.o [5]
__iar_dadd              0x0801f539          Code  Gb  DblAdd.o [5]
__iar_data_init3        0x08021d99    0x2c  Code  Gb  data_init3.o [6]
__iar_default_requirements$$_Printf<unknown>printf {Abs}
                        0x00000000           --   Gb  printf.o [3]
__iar_default_requirements$$_Printf<unknown>sprintf {Abs}
                        0x00000000           --   Gb  sprintf.o [3]
__iar_dlib_perthread_access
                        0x080200f5     0x2  Code  Gb  xtls.o [3]
__iar_dsub              0x0801f891          Code  Gb  DblSub.o [5]
__iar_dsubStart         0x0801f8a3          Code  Gb  DblSub.o [5]
__iar_edom              0x080200b5          Code  Gb  iarEdom.o [6]
__iar_file_Mtxdst       0x080200f9     0x2  Code  Gb  xmtx2.o [3]
__iar_file_Mtxinit      0x080200f7     0x2  Code  Gb  xmtx2.o [3]
__iar_file_Mtxlock      0x080200fb     0x2  Code  Gb  xmtx2.o [3]
__iar_file_Mtxunlock    0x080200fd     0x2  Code  Gb  xmtx2.o [3]
__iar_fmod              0x08020349          Code  Gb  fmod.o [5]
__iar_fmodl             0x08020349          Code  Gb  fmod.o [5]
__iar_get_ttio          0x080213ed    0x38  Code  Gb  iarttio.o [7]
__iar_lookup_ttioh      0x08021429     0x8  Code  Gb  XShttio.o [3]
__iar_packbits_init3    0x080216ad    0xa0  Code  Gb  packbits_init3.o [6]
__iar_program_start     0x0802265d          Code  Gb  cstartup_M.o [6]
__iar_provide$$_Printf<flags,int_specials,multibytes,qualifiers,widths>_PrintfSmall {Abs}
                        0x00000000           --   Gb  xprintfsmall.o [3]
__iar_sh_Discard        0x08020e05    0x6e  Code  Gb  XShHandles.o [3]
__iar_sh_Move           0x08020e73    0x72  Code  Gb  XShHandles.o [3]
__iar_sh_Pos            0x08020ee5    0x6a  Code  Gb  XShHandles.o [3]
__iar_sh_stdout         0x0802137b    0x20  Code  Gb  iarwstd.o [7]
__iar_sh_write          0x0802139b    0x22  Code  Gb  iarwrite.o [7]
__iar_sqrt              0x0801fa05          Code  Gb  sqrt.o [5]
__iar_strcmp            0x0801c91d          Code  Gb  strcmp.o [6]
__iar_system_Mtxdst     0x08020101     0x2  Code  Gb  xmtx.o [3]
__iar_system_Mtxinit    0x080200ff     0x2  Code  Gb  xmtx.o [3]
__iar_system_Mtxlock    0x08020103     0x2  Code  Gb  xmtx.o [3]
__iar_system_Mtxunlock  0x08020105     0x2  Code  Gb  xmtx.o [3]
__iar_ttio_handles      0x20000148     0x8  Data  Lc  XShttio.o [3]
__iar_ui2d              0x0801d4d5          Code  Gb  I32ToDbl.o [5]
__iar_zero_init3        0x0800b077    0x22  Code  Gb  zero_init3.o [6]
__low_level_init        0x080222af     0x4  Code  Gb  low_level_init.o [3]
__lseek                 0x08021301    0x4c  Code  Gb  lseek.o [7]
__vector_table          0x08004000          Data  Gb  startup_stm32f2xx.o [1]
__write                 0x0802134d    0x10  Code  Gb  write.o [7]
_call_main              0x080222a5          Code  Gb  cmain.o [6]
_exit                   0x080222b9          Code  Gb  cexit.o [6]
_main                   0x080222ab          Code  Gb  cmain.o [6]
abs                     0x08012fed     0x8  Code  Gb  abs.o [3]
app_size_counter        0x2000d450     0x4  Data  Gb  ManageCanBus.o [1]
atConnectSvr            0x080224a8    0x10  Data  Gb  GprsNetwork.o [1]
atGprsDefinePDP         0x08022488    0x10  Data  Gb  GprsNetwork.o [1]
atGprsSend              0x08022498    0x10  Data  Gb  GprsNetwork.o [1]
atMqttConnectClient     0x08022468    0x10  Data  Gb  GprsNetwork.o [1]
atMqttSend              0x08022238    0x18  Data  Gb  GprsNetwork.o [1]
atMqttSub               0x08022478    0x10  Data  Gb  GprsNetwork.o [1]
atcmgd                  0x080225e4     0xc  Data  Gb  GprsNetwork.o [1]
atcmgr                  0x080225f0     0xc  Data  Gb  GprsNetwork.o [1]
atoi                    0x0801c409     0x8  Code  Gb  atoi.o [3]
battery_control         0x08022748     0x4  Data  Gb  InterfaceSystem.o [1]
bin_buff                0x20007da4   0x800  Data  Gb  ManageCanBus.o [1]
block_seq_counter       0x2000d44c     0x4  Data  Gb  ManageCanBus.o [1]
bswap32                 0x0801165d    0x18  Code  Gb  EeyeLib.o [1]
busCan_control          0x08022750     0x4  Data  Gb  InterfaceSystem.o [1]
busPower_control        0x0802274c     0x4  Data  Gb  InterfaceSystem.o [1]
canTx_Delay             0x08019ca7    0x14  Code  Gb  ManageCanBus.o [1]
chackTel                0x0801167b    0x46  Code  Gb  EeyeLib.o [1]
chk_buff                0x200075a4   0x800  Data  Gb  ManageCanBus.o [1]
cos                     0x0801f875     0x6  Code  Gb  cos.o [5]
crctab                  0x080204f0   0x400  Data  Lc  ManagePacketUpdate.o [1]
diag_req_buff           0x2000a218   0x400  Data  Gb  ManageCanBus.o [1]
digits                  0x0801fc18    0x28  Data  Lc  xstoul.o [3]
ds18b20_getTemperature  0x08014dd9     0x8  Code  Gb  ManageDs18b20.o [1]
ebuf                    0x2000cd58    0x50  Data  Lc  xfiles.o [3]
eventNode               0x2000d1e0    0x20  Data  Lc  OS_EVENT.o [1]
exit                    0x080222b3     0x4  Code  Gb  exit.o [3]
fclose                  0x080217dd    0x82  Code  Gb  fclose.o [3]
fflush                  0x080212b9    0x38  Code  Gb  fflush.o [3]
fflushOne               0x08021241    0x78  Code  Lc  fflush.o [3]
file_mtx                0x2000cfc4    0x20  Data  Lc  xsyslock.o [3]
fmod                    0x08020349          Code  Gb  fmod.o [5]
fmodl                   0x08020349          Code  Gb  fmod.o [5]
fputc                   0x08021a25    0x54  Code  Gb  fputc.o [3]
frame_loss              0x2000d4ab     0x1  Data  Gb  ManageCanBus.o [1]
frame_timeout           0x2000d4ac     0x1  Data  Gb  ManageCanBus.o [1]
free                    0x0801da21    0x82  Code  Gb  xxmemxfree.o [3]
fseek                   0x080215a9    0x24  Code  Gb  fseek.o [3]
ft                      0x080144c9    0x4a  Code  Gb  hmacsha1.o [1]
gAlarm                  0x200095a4   0x450  Data  Lc  ManageAlarm.o [1]
gBlindArea              0x2000d2d4    0x10  Data  Lc  ManageBlindArea.o [1]
gBusPulseObject         0x2000caa0    0x70  Data  Lc  ManageBusPulse.o [1]
gCanDwObj               0x2000d378     0xc  Data  Lc  ManageCanBus.o [1]
gCanExdFramObject       0x2000d0fc    0x2c  Data  Lc  ManageCanBus.o [1]
gCanIsrClass            0x20008c08   0x51c  Data  Lc  ManageCanBus.o [1]
gCanObject              0x2000cc4c    0x60  Data  Lc  ManageCanBus.o [1]
gCanPassWord            0x2000d2e4    0x10  Data  Lc  ManageCanBus.o [1]
gCanServerSend          0x2000cb80    0x68  Data  Lc  ManageCanBus.o [1]
gCanSpecialObj          0x20005180  0x1394  Data  Lc  ManageCanBus.o [1]
gCheckId                0x2000d460     0x4  Data  Gb  ManageProtocol.o [1]
gExDevAck               0x2000d3d4     0x8  Data  Lc  ManageExDev.o [1]
gExDevObject            0x20009e08   0x410  Data  Gb  ManageExDev.o [1]
gFlashProgram           0x20000158  0x5028  Data  Gb  ManageRemoteUpdate.o [1]
gGprsObject             0x2000afb4   0x260  Data  Gb  GprsNetwork.o [1]
gGpsInfo                0x2000d340    0x10  Data  Lc  ModuleGps.o [1]
gGpsIsrClass            0x2000cb10    0x70  Data  Lc  ModuleGps.o [1]
gGpsObject              0x2000c820    0x88  Data  Lc  ModuleGps.o [1]
gGsmIsrClass            0x20006514   0x880  Data  Lc  GprsNetwork.o [1]
gIapDataFrame           0x2000d3cc     0x8  Data  Lc  InterfaceIap.o [1]
gIapInfo                0x2000d200    0x1c  Data  Lc  InterfaceIap.o [1]
gInComIsrData           0x200099f4   0x414  Data  Lc  InterfaceInCom.o [1]
gKeyEvent               0x2000d24c    0x18  Data  Lc  ManageKeyUnlock.o [1]
gLedBeenAlarm           0x2000d27c    0x18  Data  Lc  ManageKeyUnlock.o [1]
gLedDisplay             0x2000d264    0x18  Data  Lc  ManageKeyUnlock.o [1]
gLockCarObject          0x2000cbe8    0x64  Data  Lc  ManageLockCar.o [1]
gLowPowerUp             0x2000d39c     0xc  Data  Gb  ManageProtocol.o [1]
gMD5Struct              0x2000ccac    0x58  Data  Gb  MD5_NEW.o [1]
gOilObgect              0x2000c50c    0xe0  Data  Lc  ManageVoltSample.o [1]
gPacketResult           0x2000d390     0xc  Data  Gb  ManagePacketUpdate.o [1]
gPacketUpdate           0x2000c124   0x10c  Data  Gb  ManagePacketUpdate.o [1]
gPortControlObject      0x2000cd04    0x54  Data  Lc  ManagePortControl.o [1]
gPosTrackObject         0x2000d150    0x28  Data  Lc  ManagePosTrack.o [1]
gPosTrackObject_Mqtt    0x2000d178    0x28  Data  Lc  ManagePosTrack.o [1]
gPowerObject            0x2000c5ec    0xd4  Data  Lc  ManageVoltSample.o [1]
gProtocolAckBuff        0x2000a94c   0x334  Data  Lc  ManageProtocol.o [1]
gProtocolAckBuff_MQTT   0x2000bccc   0x190  Data  Lc  ManageProtocol.o [1]
gProtocolAckState       0x2000d314    0x10  Data  Lc  ManageProtocol.o [1]
gProtocolAckState_Mqtt  0x2000d3a8     0xc  Data  Lc  ManageProtocol.o [1]
gProtocolRealAckBuff    0x2000ac80   0x334  Data  Lc  ManageProtocol.o [1]
gProtocolUpState        0x2000d1c0    0x20  Data  Lc  ManageProtocol.o [1]
gRTobject               0x2000d45c     0x4  Data  Gb  ManageDs18b20.o [1]
gRemotePacketData       0x20006d94   0x810  Data  Gb  ManagePacketUpdate.o [1]
gRemotePacketInfo       0x2000d2ac    0x14  Data  Gb  ManagePacketUpdate.o [1]
gRemotePacketUpdate     0x2000d384     0xc  Data  Gb  ManagePacketUpdate.o [1]
gRemoteStruct           0x2000c428    0xe4  Data  Gb  ManageRemoteUpdate.o [1]
gServerMsg              0x2000b6c4   0x204  Data  Gb  GprsNetwork.o [1]
gServerMsg_Mqtt         0x2000b8c8   0x204  Data  Gb  GprsNetwork.o [1]
gSmsObject              0x2000bfec   0x138  Data  Gb  GprsNetwork.o [1]
gSystemObject           0x2000d234    0x18  Data  Lc  InterfaceSystem.o [1]
gSystemPowerObject      0x2000d21c    0x18  Data  Lc  InterfaceSystem.o [1]
gSystemRestartObject    0x2000d1a0    0x20  Data  Lc  InterfaceSystem.o [1]
gSystemStopModeObject   0x2000d360     0xc  Data  Gb  InterfaceSystem.o [1]
gSystemTransObj         0x2000d36c     0xc  Data  Lc  InterfaceSystem.o [1]
gTaskObject             0x2000d408     0x8  Data  Lc  OS_TASK.o [1]
gTimeObject             0x2000d294    0x18  Data  Lc  ManageTime.o [1]
gWatchdogObiect         0x2000d3e4     0x8  Data  Lc  ManageWatchdog.o [1]
gWorkStatStruct         0x2000cf84    0x3c  Data  Lc  ManageWorkStat.o [1]
g_MqttDial              0x2000d49b     0x1  Data  Lc  GprsNetwork.o [1]
gprotocolObject         0x2000d304    0x10  Data  Gb  ManageProtocol.o [1]
gprsIgtPin              0x08022738     0x4  Data  Gb  GprsNetwork.o [1]
gprsPowerPin            0x08022734     0x4  Data  Gb  GprsNetwork.o [1]
gprsShowPin             0x0802273c     0x4  Data  Gb  GprsNetwork.o [1]
gprsShowPin1            0x0802279c     0x4  Data  Gb  main.o [1]
gpsPowerPin             0x08022790     0x4  Data  Gb  ModuleGps.o [1]
gpsShowPin              0x08022794     0x4  Data  Gb  ModuleGps.o [1]
gpsShowPin1             0x08022798     0x4  Data  Gb  main.o [1]
gpsTime                 0x2000d3ec     0x8  Data  Lc  ManageWorkStat.o [1]
gsmShowPin              0x08022740     0x4  Data  Gb  GprsNetwork.o [1]
gsmShowPin1             0x080227a0     0x4  Data  Gb  main.o [1]
high_input              0x08022770     0x4  Data  Gb  ManagePortControl.o [1]
hmac_sha1               0x08014805    0xf8  Code  Gb  hmacsha1.o [1]
ipad                    0x20000154     0x1  Data  Gb  hmacsha1.o [1]
isspace                 0x080200c1    0x14  Code  Gb  isxxx.o [3]
k                       0x08014513    0x2a  Code  Gb  hmacsha1.o [1]
k0                      0x2000cec4    0x40  Data  Gb  hmacsha1.o [1]
k0xorIpad               0x2000cf04    0x40  Data  Gb  hmacsha1.o [1]
main                    0x0801493d    0xb4  Code  Gb  main.o [1]
malloc                  0x0801d949    0xb6  Code  Gb  xxmemxmalloc.o [3]
memchr                  0x0801d8e5          Code  Gb  memchr.o [6]
memcmp                  0x08012ffd          Code  Gb  memcmp.o [6]
memcpy                  0x0800cd95     0xe  Code  Gb  ModuleGps.o [1]
memmove                 0x080193e9     0xe  Code  Gb  ManageProtocol.o [1]
memset                  0x0800ae41    0x14  Code  Gb  ManageRemoteUpdate.o [1]
mtx                     0x2000cfe4    0x14  Data  Lc  xsyslock.o [3]
ndigs                   0x0801fc40    0x28  Data  Lc  xstoul.o [3]
obuf                    0x2000cda8    0x50  Data  Lc  xfiles.o [3]
opad                    0x20000155     0x1  Data  Gb  hmacsha1.o [1]
out_key                 0x2000d420     0x4  Data  Gb  ManageCanBus.o [1]
portInValue             0x080155a9    0x18  Code  Gb  ManagePortControl.o [1]
print                   0x080119d3     0x6  Code  Gb  myPrintf.o [1]
printf                  0x0800cdad    0x24  Code  Gb  printf.o [3]
protocolMqttBuff        0x2000be5c   0x190  Data  Lc  ManageProtocol.o [1]
protocolReceBuff        0x2000a618   0x334  Data  Lc  ManageProtocol.o [1]
protocolUpBuffer        0x200085a4   0x664  Data  Lc  ManageProtocol.o [1]
putchar                 0x080222f9     0xc  Code  Gb  putchar.o [3]
remove                  0x080218fb    0x16  Code  Gb  remove.o [7]
revbit                  0x08011675     0x6  Code  Gb  EeyeLib.o [1]
rotl                    0x0801453d    0x1e  Code  Gb  hmacsha1.o [1]
sFileInfo               0x2000c9ac    0x80  Data  Lc  XShHandles.o [3]
sendFastPacket          0x08019e57    0xd6  Code  Gb  ManageCanBus.o [1]
sendOneByte             0x0801c847    0x5e  Code  Gb  SpiFlash.o [1]
sha1                    0x0801455b   0x2aa  Code  Gb  hmacsha1.o [1]
sin                     0x0801f9fd     0x6  Code  Gb  sin.o [5]
smsTelNum               0x080223c8    0x10  Data  Gb  AdapterSms.o [1]
smsTelNumBackup         0x080223d8    0x10  Data  Gb  AdapterSms.o [1]
smsTelNum_1             0x08022340    0x14  Data  Gb  AdapterSms.o [1]
sprintf                 0x08011bb5    0x34  Code  Gb  sprintf.o [3]
sqrt                    0x0801fa05          Code  Gb  sqrt.o [5]
sqrtl                   0x0801fa05          Code  Gb  sqrt.o [5]
step5data               0x20009124   0x480  Data  Gb  hmacsha1.o [1]
step7data               0x2000cf44    0x40  Data  Gb  hmacsha1.o [1]
step8data               0x2000c92c    0x80  Data  Gb  hmacsha1.o [1]
strchr                  0x08012c19          Code  Gb  strchr.o [6]
strcmp                  0x0801c91d          Code  Gb  strcmp.o [6]
strcpy                  0x0801c8ad          Code  Gb  strcpy.o [6]
strlen                  0x08011be9          Code  Gb  strlen.o [6]
strncmp                 0x08011631    0x2a  Code  Gb  strncmp.o [3]
strstr                  0x080119cb     0x8  Code  Gb  main.o [1]
syslock_o               0x2000cfc0     0x4  Data  Lc  xsyslock.o [3]
systemSleep             0x0800b075     0x2  Code  Gb  OS_TASK.o [1]
system_checkId          0x08009efd    0x18  Code  Gb  InterfaceSystem.o [1]
taskNode                0x2000c32c    0xfc  Data  Lc  OS_TASK.o [1]
tempFileFlag            0x20000151     0x1  Data  Gb  ManageCanBus.o [1]
tempGpsInfo             0x2000d350    0x10  Data  Lc  ModuleGps.o [1]
tempRunTask             0x2000d490     0x2  Data  Lc  OS_TASK.o [1]
tempSmsNum              0x2000d02c    0x34  Data  Lc  AdapterSms.o [1]
tolower                 0x080200d5    0x14  Code  Gb  tolower.o [3]
uds_check_end_addr      0x0801af17    0x60  Code  Gb  ManageCanBus.o [1]
uds_check_end_addr_val  0x0801af77    0x58  Code  Gb  ManageCanBus.o [1]
uds_copy_rom            0x0801b5f9    0x58  Code  Gb  ManageCanBus.o [1]
uds_copy_rom_val        0x0801b655    0x30  Code  Gb  ManageCanBus.o [1]
uds_erase_req_rom       0x0801afd5    0x82  Code  Gb  ManageCanBus.o [1]
uds_erase_req_val_rom   0x0801b065    0x70  Code  Gb  ManageCanBus.o [1]
uds_flash_backup        0x20000150     0x1  Data  Gb  ManageCanBus.o [1]
uds_hex_to_bin          0x0801b20b   0x19c  Code  Gb  ManageCanBus.o [1]
uds_hexfile_find        0x0801b1e9    0x22  Code  Gb  ManageCanBus.o [1]
uds_key_generate        0x0801ad89    0x6a  Code  Gb  ManageCanBus.o [1]
uds_key_validation      0x0801adfd    0x34  Code  Gb  ManageCanBus.o [1]
uds_prg_sess_req        0x0801acf1    0x58  Code  Gb  ManageCanBus.o [1]
uds_prg_sess_val        0x0801ad51    0x32  Code  Gb  ManageCanBus.o [1]
uds_pwron_reset_req     0x0801b685    0x60  Code  Gb  ManageCanBus.o [1]
uds_req_dwnload_rom     0x0801b0d5    0x6c  Code  Gb  ManageCanBus.o [1]
uds_req_dwnload_rom_val
                        0x0801b141    0x2e  Code  Gb  ManageCanBus.o [1]
uds_seed_req_val        0x0801ae99    0x7e  Code  Gb  ManageCanBus.o [1]
uds_trsfr_data_rom_val  0x0801b4e1    0x84  Code  Gb  ManageCanBus.o [1]
uds_trsfr_exit_rom      0x0801b565    0x58  Code  Gb  ManageCanBus.o [1]
uds_trsfr_exit_rom_val  0x0801b5bd    0x3c  Code  Gb  ManageCanBus.o [1]
uds_trsfr_hexdata_rom   0x0801b3a9   0x138  Code  Gb  ManageCanBus.o [1]
uds_tx_req              0x0801b80f    0x58  Code  Gb  ManageCanBus.o [1]
uds_tx_req_val          0x0801b867    0x1c  Code  Gb  ManageCanBus.o [1]
uds_tx_start            0x0801b7bd    0x52  Code  Gb  ManageCanBus.o [1]
uds_update_cnt          0x2000d4a7     0x1  Data  Gb  ManageCanBus.o [1]
usDelay                 0x0801c82b    0x1c  Code  Gb  SpiFlash.o [1]
variables_init          0x0801b6ed    0x96  Code  Gb  ManageCanBus.o [1]
x                       0x2000ce84    0x40  Data  Gb  MD5_NEW.o [1]


[1] = F:\ÐìÏþ½¡\EGS502T2-ZL(AP-UDS)\iar\Debug\Obj
[2] = command line
[3] = dl7M_tlf.a
[4] = encryption.a
[5] = m7M_tl.a
[6] = rt7M_tl.a
[7] = shb_l.a

  119 300 bytes of readonly  code memory
    6 065 bytes of readonly  data memory
   55 991 bytes of readwrite data memory

Errors: none
Warnings: none
